
watch.elf:     file format elf32-littlearm

Sections:
Idx Name          Size      VMA       LMA       File off  Algn
  0 .isr_vector   0000010c  08000000  08000000  00010000  2**0
                  CONTENTS, ALLOC, LOAD, READONLY, DATA
  1 .text         00001a38  0800010c  0800010c  0001010c  2**2
                  CONTENTS, ALLOC, LOAD, READONLY, CODE
  2 .rodata       00000038  08001b44  08001b44  00011b44  2**2
                  CONTENTS, ALLOC, LOAD, READONLY, DATA
  3 .ARM.extab    00000000  08001b7c  08001b7c  0002000c  2**0
                  CONTENTS
  4 .ARM          00000000  08001b7c  08001b7c  0002000c  2**0
                  CONTENTS
  5 .preinit_array 00000000  08001b7c  08001b7c  0002000c  2**0
                  CONTENTS, ALLOC, LOAD, DATA
  6 .init_array   00000004  08001b7c  08001b7c  00011b7c  2**2
                  CONTENTS, ALLOC, LOAD, DATA
  7 .fini_array   00000004  08001b80  08001b80  00011b80  2**2
                  CONTENTS, ALLOC, LOAD, DATA
  8 .data         0000000c  20000000  08001b84  00020000  2**2
                  CONTENTS, ALLOC, LOAD, DATA
  9 .bss          00000108  2000000c  08001b90  0002000c  2**2
                  ALLOC
 10 ._user_heap_stack 00000604  20000114  08001b90  00020114  2**0
                  ALLOC
 11 .ARM.attributes 00000029  00000000  00000000  0002000c  2**0
                  CONTENTS, READONLY
 12 .comment      0000007b  00000000  00000000  00020035  2**0
                  CONTENTS, READONLY
 13 .debug_frame  0000004c  00000000  00000000  000200b0  2**2
                  CONTENTS, READONLY, DEBUGGING

Disassembly of section .text:

0800010c <__do_global_dtors_aux>:
 800010c:	b510      	push	{r4, lr}
 800010e:	4c05      	ldr	r4, [pc, #20]	; (8000124 <__do_global_dtors_aux+0x18>)
 8000110:	7823      	ldrb	r3, [r4, #0]
 8000112:	b933      	cbnz	r3, 8000122 <__do_global_dtors_aux+0x16>
 8000114:	4b04      	ldr	r3, [pc, #16]	; (8000128 <__do_global_dtors_aux+0x1c>)
 8000116:	b113      	cbz	r3, 800011e <__do_global_dtors_aux+0x12>
 8000118:	4804      	ldr	r0, [pc, #16]	; (800012c <__do_global_dtors_aux+0x20>)
 800011a:	f3af 8000 	nop.w
 800011e:	2301      	movs	r3, #1
 8000120:	7023      	strb	r3, [r4, #0]
 8000122:	bd10      	pop	{r4, pc}
 8000124:	2000000c 	.word	0x2000000c
 8000128:	00000000 	.word	0x00000000
 800012c:	08001b2c 	.word	0x08001b2c

08000130 <frame_dummy>:
 8000130:	b508      	push	{r3, lr}
 8000132:	4b03      	ldr	r3, [pc, #12]	; (8000140 <frame_dummy+0x10>)
 8000134:	b11b      	cbz	r3, 800013e <frame_dummy+0xe>
 8000136:	4903      	ldr	r1, [pc, #12]	; (8000144 <frame_dummy+0x14>)
 8000138:	4803      	ldr	r0, [pc, #12]	; (8000148 <frame_dummy+0x18>)
 800013a:	f3af 8000 	nop.w
 800013e:	bd08      	pop	{r3, pc}
 8000140:	00000000 	.word	0x00000000
 8000144:	20000010 	.word	0x20000010
 8000148:	08001b2c 	.word	0x08001b2c

0800014c <HAL_InitTick>:
 800014c:	b538      	push	{r3, r4, r5, lr}
 800014e:	f44f 737a 	mov.w	r3, #1000	; 0x3e8
 8000152:	490d      	ldr	r1, [pc, #52]	; (8000188 <HAL_InitTick+0x3c>)
 8000154:	4a0d      	ldr	r2, [pc, #52]	; (800018c <HAL_InitTick+0x40>)
 8000156:	7809      	ldrb	r1, [r1, #0]
 8000158:	6812      	ldr	r2, [r2, #0]
 800015a:	fbb3 f3f1 	udiv	r3, r3, r1
 800015e:	4605      	mov	r5, r0
 8000160:	fbb2 f0f3 	udiv	r0, r2, r3
 8000164:	f000 f890 	bl	8000288 <HAL_SYSTICK_Config>
 8000168:	b908      	cbnz	r0, 800016e <HAL_InitTick+0x22>
 800016a:	2d0f      	cmp	r5, #15
 800016c:	d901      	bls.n	8000172 <HAL_InitTick+0x26>
 800016e:	2001      	movs	r0, #1
 8000170:	bd38      	pop	{r3, r4, r5, pc}
 8000172:	4604      	mov	r4, r0
 8000174:	4602      	mov	r2, r0
 8000176:	4629      	mov	r1, r5
 8000178:	f04f 30ff 	mov.w	r0, #4294967295	; 0xffffffff
 800017c:	f000 f840 	bl	8000200 <HAL_NVIC_SetPriority>
 8000180:	4b03      	ldr	r3, [pc, #12]	; (8000190 <HAL_InitTick+0x44>)
 8000182:	4620      	mov	r0, r4
 8000184:	601d      	str	r5, [r3, #0]
 8000186:	bd38      	pop	{r3, r4, r5, pc}
 8000188:	20000000 	.word	0x20000000
 800018c:	20000008 	.word	0x20000008
 8000190:	20000004 	.word	0x20000004

08000194 <HAL_Init>:
 8000194:	4a07      	ldr	r2, [pc, #28]	; (80001b4 <HAL_Init+0x20>)
 8000196:	b508      	push	{r3, lr}
 8000198:	6813      	ldr	r3, [r2, #0]
 800019a:	2003      	movs	r0, #3
 800019c:	f043 0310 	orr.w	r3, r3, #16
 80001a0:	6013      	str	r3, [r2, #0]
 80001a2:	f000 f81b 	bl	80001dc <HAL_NVIC_SetPriorityGrouping>
 80001a6:	2000      	movs	r0, #0
 80001a8:	f7ff ffd0 	bl	800014c <HAL_InitTick>
 80001ac:	f001 fb5a 	bl	8001864 <HAL_MspInit>
 80001b0:	2000      	movs	r0, #0
 80001b2:	bd08      	pop	{r3, pc}
 80001b4:	40022000 	.word	0x40022000

080001b8 <HAL_IncTick>:
 80001b8:	4a03      	ldr	r2, [pc, #12]	; (80001c8 <HAL_IncTick+0x10>)
 80001ba:	4b04      	ldr	r3, [pc, #16]	; (80001cc <HAL_IncTick+0x14>)
 80001bc:	6811      	ldr	r1, [r2, #0]
 80001be:	781b      	ldrb	r3, [r3, #0]
 80001c0:	440b      	add	r3, r1
 80001c2:	6013      	str	r3, [r2, #0]
 80001c4:	4770      	bx	lr
 80001c6:	bf00      	nop
 80001c8:	20000028 	.word	0x20000028
 80001cc:	20000000 	.word	0x20000000

080001d0 <HAL_GetTick>:
 80001d0:	4b01      	ldr	r3, [pc, #4]	; (80001d8 <HAL_GetTick+0x8>)
 80001d2:	6818      	ldr	r0, [r3, #0]
 80001d4:	4770      	bx	lr
 80001d6:	bf00      	nop
 80001d8:	20000028 	.word	0x20000028

080001dc <HAL_NVIC_SetPriorityGrouping>:
 80001dc:	f64f 01ff 	movw	r1, #63743	; 0xf8ff
 80001e0:	4a06      	ldr	r2, [pc, #24]	; (80001fc <HAL_NVIC_SetPriorityGrouping+0x20>)
 80001e2:	0200      	lsls	r0, r0, #8
 80001e4:	68d3      	ldr	r3, [r2, #12]
 80001e6:	f400 60e0 	and.w	r0, r0, #1792	; 0x700
 80001ea:	400b      	ands	r3, r1
 80001ec:	f043 63bf 	orr.w	r3, r3, #100139008	; 0x5f80000
 80001f0:	f443 3300 	orr.w	r3, r3, #131072	; 0x20000
 80001f4:	4303      	orrs	r3, r0
 80001f6:	60d3      	str	r3, [r2, #12]
 80001f8:	4770      	bx	lr
 80001fa:	bf00      	nop
 80001fc:	e000ed00 	.word	0xe000ed00

08000200 <HAL_NVIC_SetPriority>:
 8000200:	4b18      	ldr	r3, [pc, #96]	; (8000264 <HAL_NVIC_SetPriority+0x64>)
 8000202:	b430      	push	{r4, r5}
 8000204:	68db      	ldr	r3, [r3, #12]
 8000206:	f3c3 2302 	ubfx	r3, r3, #8, #3
 800020a:	f1c3 0507 	rsb	r5, r3, #7
 800020e:	2d04      	cmp	r5, #4
 8000210:	f103 0404 	add.w	r4, r3, #4
 8000214:	bf28      	it	cs
 8000216:	2504      	movcs	r5, #4
 8000218:	2c06      	cmp	r4, #6
 800021a:	d919      	bls.n	8000250 <HAL_NVIC_SetPriority+0x50>
 800021c:	f04f 34ff 	mov.w	r4, #4294967295	; 0xffffffff
 8000220:	3b03      	subs	r3, #3
 8000222:	409c      	lsls	r4, r3
 8000224:	ea22 0404 	bic.w	r4, r2, r4
 8000228:	f04f 32ff 	mov.w	r2, #4294967295	; 0xffffffff
 800022c:	40aa      	lsls	r2, r5
 800022e:	ea21 0102 	bic.w	r1, r1, r2
 8000232:	fa01 f203 	lsl.w	r2, r1, r3
 8000236:	4322      	orrs	r2, r4
 8000238:	0112      	lsls	r2, r2, #4
 800023a:	2800      	cmp	r0, #0
 800023c:	b2d2      	uxtb	r2, r2
 800023e:	db0a      	blt.n	8000256 <HAL_NVIC_SetPriority+0x56>
 8000240:	f100 4060 	add.w	r0, r0, #3758096384	; 0xe0000000
 8000244:	f500 4061 	add.w	r0, r0, #57600	; 0xe100
 8000248:	f880 2300 	strb.w	r2, [r0, #768]	; 0x300
 800024c:	bc30      	pop	{r4, r5}
 800024e:	4770      	bx	lr
 8000250:	2400      	movs	r4, #0
 8000252:	4623      	mov	r3, r4
 8000254:	e7e8      	b.n	8000228 <HAL_NVIC_SetPriority+0x28>
 8000256:	4b04      	ldr	r3, [pc, #16]	; (8000268 <HAL_NVIC_SetPriority+0x68>)
 8000258:	f000 000f 	and.w	r0, r0, #15
 800025c:	4403      	add	r3, r0
 800025e:	761a      	strb	r2, [r3, #24]
 8000260:	bc30      	pop	{r4, r5}
 8000262:	4770      	bx	lr
 8000264:	e000ed00 	.word	0xe000ed00
 8000268:	e000ecfc 	.word	0xe000ecfc

0800026c <HAL_NVIC_EnableIRQ>:
 800026c:	2800      	cmp	r0, #0
 800026e:	db07      	blt.n	8000280 <HAL_NVIC_EnableIRQ+0x14>
 8000270:	2301      	movs	r3, #1
 8000272:	f000 011f 	and.w	r1, r0, #31
 8000276:	4a03      	ldr	r2, [pc, #12]	; (8000284 <HAL_NVIC_EnableIRQ+0x18>)
 8000278:	408b      	lsls	r3, r1
 800027a:	0940      	lsrs	r0, r0, #5
 800027c:	f842 3020 	str.w	r3, [r2, r0, lsl #2]
 8000280:	4770      	bx	lr
 8000282:	bf00      	nop
 8000284:	e000e100 	.word	0xe000e100

08000288 <HAL_SYSTICK_Config>:
 8000288:	3801      	subs	r0, #1
 800028a:	f1b0 7f80 	cmp.w	r0, #16777216	; 0x1000000
 800028e:	d20d      	bcs.n	80002ac <HAL_SYSTICK_Config+0x24>
 8000290:	b430      	push	{r4, r5}
 8000292:	25f0      	movs	r5, #240	; 0xf0
 8000294:	2200      	movs	r2, #0
 8000296:	2107      	movs	r1, #7
 8000298:	4b05      	ldr	r3, [pc, #20]	; (80002b0 <HAL_SYSTICK_Config+0x28>)
 800029a:	4c06      	ldr	r4, [pc, #24]	; (80002b4 <HAL_SYSTICK_Config+0x2c>)
 800029c:	6058      	str	r0, [r3, #4]
 800029e:	f884 5023 	strb.w	r5, [r4, #35]	; 0x23
 80002a2:	4610      	mov	r0, r2
 80002a4:	bc30      	pop	{r4, r5}
 80002a6:	609a      	str	r2, [r3, #8]
 80002a8:	6019      	str	r1, [r3, #0]
 80002aa:	4770      	bx	lr
 80002ac:	2001      	movs	r0, #1
 80002ae:	4770      	bx	lr
 80002b0:	e000e010 	.word	0xe000e010
 80002b4:	e000ed00 	.word	0xe000ed00

080002b8 <HAL_GPIO_Init>:
 80002b8:	680a      	ldr	r2, [r1, #0]
 80002ba:	2a00      	cmp	r2, #0
 80002bc:	f000 80db 	beq.w	8000476 <HAL_GPIO_Init+0x1be>
 80002c0:	e92d 4ff0 	stmdb	sp!, {r4, r5, r6, r7, r8, r9, sl, fp, lr}
 80002c4:	f04f 0a00 	mov.w	sl, #0
 80002c8:	b085      	sub	sp, #20
 80002ca:	4655      	mov	r5, sl
 80002cc:	f8df c1d0 	ldr.w	ip, [pc, #464]	; 80004a0 <HAL_GPIO_Init+0x1e8>
 80002d0:	f8df e1d0 	ldr.w	lr, [pc, #464]	; 80004a4 <HAL_GPIO_Init+0x1ec>
 80002d4:	4f6d      	ldr	r7, [pc, #436]	; (800048c <HAL_GPIO_Init+0x1d4>)
 80002d6:	f8df 81d0 	ldr.w	r8, [pc, #464]	; 80004a8 <HAL_GPIO_Init+0x1f0>
 80002da:	e003      	b.n	80002e4 <HAL_GPIO_Init+0x2c>
 80002dc:	3501      	adds	r5, #1
 80002de:	fa32 f305 	lsrs.w	r3, r2, r5
 80002e2:	d078      	beq.n	80003d6 <HAL_GPIO_Init+0x11e>
 80002e4:	2301      	movs	r3, #1
 80002e6:	40ab      	lsls	r3, r5
 80002e8:	ea02 0403 	and.w	r4, r2, r3
 80002ec:	42a3      	cmp	r3, r4
 80002ee:	d1f5      	bne.n	80002dc <HAL_GPIO_Init+0x24>
 80002f0:	684a      	ldr	r2, [r1, #4]
 80002f2:	2a12      	cmp	r2, #18
 80002f4:	f000 809e 	beq.w	8000434 <HAL_GPIO_Init+0x17c>
 80002f8:	f200 8087 	bhi.w	800040a <HAL_GPIO_Init+0x152>
 80002fc:	2a02      	cmp	r2, #2
 80002fe:	f000 809d 	beq.w	800043c <HAL_GPIO_Init+0x184>
 8000302:	d97c      	bls.n	80003fe <HAL_GPIO_Init+0x146>
 8000304:	2a03      	cmp	r2, #3
 8000306:	d069      	beq.n	80003dc <HAL_GPIO_Init+0x124>
 8000308:	2a11      	cmp	r2, #17
 800030a:	d102      	bne.n	8000312 <HAL_GPIO_Init+0x5a>
 800030c:	68cb      	ldr	r3, [r1, #12]
 800030e:	f103 0a04 	add.w	sl, r3, #4
 8000312:	2cff      	cmp	r4, #255	; 0xff
 8000314:	d866      	bhi.n	80003e4 <HAL_GPIO_Init+0x12c>
 8000316:	4681      	mov	r9, r0
 8000318:	6803      	ldr	r3, [r0, #0]
 800031a:	00aa      	lsls	r2, r5, #2
 800031c:	260f      	movs	r6, #15
 800031e:	fa06 fb02 	lsl.w	fp, r6, r2
 8000322:	ea23 030b 	bic.w	r3, r3, fp
 8000326:	fa0a f202 	lsl.w	r2, sl, r2
 800032a:	4313      	orrs	r3, r2
 800032c:	f8c9 3000 	str.w	r3, [r9]
 8000330:	684a      	ldr	r2, [r1, #4]
 8000332:	00d3      	lsls	r3, r2, #3
 8000334:	d561      	bpl.n	80003fa <HAL_GPIO_Init+0x142>
 8000336:	f8dc 9018 	ldr.w	r9, [ip, #24]
 800033a:	f025 0303 	bic.w	r3, r5, #3
 800033e:	f049 0901 	orr.w	r9, r9, #1
 8000342:	f8cc 9018 	str.w	r9, [ip, #24]
 8000346:	f8dc 9018 	ldr.w	r9, [ip, #24]
 800034a:	f103 4380 	add.w	r3, r3, #1073741824	; 0x40000000
 800034e:	f009 0901 	and.w	r9, r9, #1
 8000352:	f8cd 900c 	str.w	r9, [sp, #12]
 8000356:	f503 3380 	add.w	r3, r3, #65536	; 0x10000
 800035a:	f005 0903 	and.w	r9, r5, #3
 800035e:	f8dd b00c 	ldr.w	fp, [sp, #12]
 8000362:	ea4f 0989 	mov.w	r9, r9, lsl #2
 8000366:	f8d3 b008 	ldr.w	fp, [r3, #8]
 800036a:	fa06 f609 	lsl.w	r6, r6, r9
 800036e:	ea2b 0606 	bic.w	r6, fp, r6
 8000372:	4570      	cmp	r0, lr
 8000374:	9601      	str	r6, [sp, #4]
 8000376:	d011      	beq.n	800039c <HAL_GPIO_Init+0xe4>
 8000378:	4540      	cmp	r0, r8
 800037a:	d063      	beq.n	8000444 <HAL_GPIO_Init+0x18c>
 800037c:	4e44      	ldr	r6, [pc, #272]	; (8000490 <HAL_GPIO_Init+0x1d8>)
 800037e:	42b0      	cmp	r0, r6
 8000380:	d07a      	beq.n	8000478 <HAL_GPIO_Init+0x1c0>
 8000382:	4e44      	ldr	r6, [pc, #272]	; (8000494 <HAL_GPIO_Init+0x1dc>)
 8000384:	42b0      	cmp	r0, r6
 8000386:	bf0c      	ite	eq
 8000388:	f04f 0b03 	moveq.w	fp, #3
 800038c:	f04f 0b04 	movne.w	fp, #4
 8000390:	9e01      	ldr	r6, [sp, #4]
 8000392:	fa0b f909 	lsl.w	r9, fp, r9
 8000396:	ea46 0609 	orr.w	r6, r6, r9
 800039a:	9601      	str	r6, [sp, #4]
 800039c:	609e      	str	r6, [r3, #8]
 800039e:	683b      	ldr	r3, [r7, #0]
 80003a0:	03d6      	lsls	r6, r2, #15
 80003a2:	bf4c      	ite	mi
 80003a4:	4323      	orrmi	r3, r4
 80003a6:	43a3      	bicpl	r3, r4
 80003a8:	603b      	str	r3, [r7, #0]
 80003aa:	687b      	ldr	r3, [r7, #4]
 80003ac:	0396      	lsls	r6, r2, #14
 80003ae:	bf4c      	ite	mi
 80003b0:	4323      	orrmi	r3, r4
 80003b2:	43a3      	bicpl	r3, r4
 80003b4:	607b      	str	r3, [r7, #4]
 80003b6:	68bb      	ldr	r3, [r7, #8]
 80003b8:	02d6      	lsls	r6, r2, #11
 80003ba:	bf4c      	ite	mi
 80003bc:	4323      	orrmi	r3, r4
 80003be:	43a3      	bicpl	r3, r4
 80003c0:	60bb      	str	r3, [r7, #8]
 80003c2:	0292      	lsls	r2, r2, #10
 80003c4:	68fb      	ldr	r3, [r7, #12]
 80003c6:	d515      	bpl.n	80003f4 <HAL_GPIO_Init+0x13c>
 80003c8:	431c      	orrs	r4, r3
 80003ca:	60fc      	str	r4, [r7, #12]
 80003cc:	680a      	ldr	r2, [r1, #0]
 80003ce:	3501      	adds	r5, #1
 80003d0:	fa32 f305 	lsrs.w	r3, r2, r5
 80003d4:	d186      	bne.n	80002e4 <HAL_GPIO_Init+0x2c>
 80003d6:	b005      	add	sp, #20
 80003d8:	e8bd 8ff0 	ldmia.w	sp!, {r4, r5, r6, r7, r8, r9, sl, fp, pc}
 80003dc:	2cff      	cmp	r4, #255	; 0xff
 80003de:	f04f 0a00 	mov.w	sl, #0
 80003e2:	d998      	bls.n	8000316 <HAL_GPIO_Init+0x5e>
 80003e4:	f105 4280 	add.w	r2, r5, #1073741824	; 0x40000000
 80003e8:	3a08      	subs	r2, #8
 80003ea:	6843      	ldr	r3, [r0, #4]
 80003ec:	0092      	lsls	r2, r2, #2
 80003ee:	f100 0904 	add.w	r9, r0, #4
 80003f2:	e793      	b.n	800031c <HAL_GPIO_Init+0x64>
 80003f4:	ea23 0404 	bic.w	r4, r3, r4
 80003f8:	60fc      	str	r4, [r7, #12]
 80003fa:	680a      	ldr	r2, [r1, #0]
 80003fc:	e76e      	b.n	80002dc <HAL_GPIO_Init+0x24>
 80003fe:	b1a2      	cbz	r2, 800042a <HAL_GPIO_Init+0x172>
 8000400:	2a01      	cmp	r2, #1
 8000402:	d186      	bne.n	8000312 <HAL_GPIO_Init+0x5a>
 8000404:	f8d1 a00c 	ldr.w	sl, [r1, #12]
 8000408:	e783      	b.n	8000312 <HAL_GPIO_Init+0x5a>
 800040a:	4e23      	ldr	r6, [pc, #140]	; (8000498 <HAL_GPIO_Init+0x1e0>)
 800040c:	42b2      	cmp	r2, r6
 800040e:	d00c      	beq.n	800042a <HAL_GPIO_Init+0x172>
 8000410:	d920      	bls.n	8000454 <HAL_GPIO_Init+0x19c>
 8000412:	4e22      	ldr	r6, [pc, #136]	; (800049c <HAL_GPIO_Init+0x1e4>)
 8000414:	42b2      	cmp	r2, r6
 8000416:	d008      	beq.n	800042a <HAL_GPIO_Init+0x172>
 8000418:	f506 3680 	add.w	r6, r6, #65536	; 0x10000
 800041c:	42b2      	cmp	r2, r6
 800041e:	d004      	beq.n	800042a <HAL_GPIO_Init+0x172>
 8000420:	f5a6 1680 	sub.w	r6, r6, #1048576	; 0x100000
 8000424:	42b2      	cmp	r2, r6
 8000426:	f47f af74 	bne.w	8000312 <HAL_GPIO_Init+0x5a>
 800042a:	688a      	ldr	r2, [r1, #8]
 800042c:	b9e2      	cbnz	r2, 8000468 <HAL_GPIO_Init+0x1b0>
 800042e:	f04f 0a04 	mov.w	sl, #4
 8000432:	e76e      	b.n	8000312 <HAL_GPIO_Init+0x5a>
 8000434:	68cb      	ldr	r3, [r1, #12]
 8000436:	f103 0a0c 	add.w	sl, r3, #12
 800043a:	e76a      	b.n	8000312 <HAL_GPIO_Init+0x5a>
 800043c:	68cb      	ldr	r3, [r1, #12]
 800043e:	f103 0a08 	add.w	sl, r3, #8
 8000442:	e766      	b.n	8000312 <HAL_GPIO_Init+0x5a>
 8000444:	f04f 0b01 	mov.w	fp, #1
 8000448:	fa0b f909 	lsl.w	r9, fp, r9
 800044c:	ea46 0609 	orr.w	r6, r6, r9
 8000450:	9601      	str	r6, [sp, #4]
 8000452:	e7a3      	b.n	800039c <HAL_GPIO_Init+0xe4>
 8000454:	f5a6 1680 	sub.w	r6, r6, #1048576	; 0x100000
 8000458:	42b2      	cmp	r2, r6
 800045a:	d0e6      	beq.n	800042a <HAL_GPIO_Init+0x172>
 800045c:	f506 3680 	add.w	r6, r6, #65536	; 0x10000
 8000460:	42b2      	cmp	r2, r6
 8000462:	f47f af56 	bne.w	8000312 <HAL_GPIO_Init+0x5a>
 8000466:	e7e0      	b.n	800042a <HAL_GPIO_Init+0x172>
 8000468:	2a01      	cmp	r2, #1
 800046a:	bf0c      	ite	eq
 800046c:	6103      	streq	r3, [r0, #16]
 800046e:	6143      	strne	r3, [r0, #20]
 8000470:	f04f 0a08 	mov.w	sl, #8
 8000474:	e74d      	b.n	8000312 <HAL_GPIO_Init+0x5a>
 8000476:	4770      	bx	lr
 8000478:	f04f 0b02 	mov.w	fp, #2
 800047c:	9e01      	ldr	r6, [sp, #4]
 800047e:	fa0b f909 	lsl.w	r9, fp, r9
 8000482:	ea46 0609 	orr.w	r6, r6, r9
 8000486:	9601      	str	r6, [sp, #4]
 8000488:	e788      	b.n	800039c <HAL_GPIO_Init+0xe4>
 800048a:	bf00      	nop
 800048c:	40010400 	.word	0x40010400
 8000490:	40011000 	.word	0x40011000
 8000494:	40011400 	.word	0x40011400
 8000498:	10210000 	.word	0x10210000
 800049c:	10310000 	.word	0x10310000
 80004a0:	40021000 	.word	0x40021000
 80004a4:	40010800 	.word	0x40010800
 80004a8:	40010c00 	.word	0x40010c00

080004ac <HAL_GPIO_WritePin>:
 80004ac:	b902      	cbnz	r2, 80004b0 <HAL_GPIO_WritePin+0x4>
 80004ae:	0409      	lsls	r1, r1, #16
 80004b0:	6101      	str	r1, [r0, #16]
 80004b2:	4770      	bx	lr

080004b4 <HAL_GPIO_TogglePin>:
 80004b4:	68c3      	ldr	r3, [r0, #12]
 80004b6:	420b      	tst	r3, r1
 80004b8:	bf14      	ite	ne
 80004ba:	6141      	strne	r1, [r0, #20]
 80004bc:	6101      	streq	r1, [r0, #16]
 80004be:	4770      	bx	lr

080004c0 <HAL_I2C_Init>:
 80004c0:	2800      	cmp	r0, #0
 80004c2:	f000 8097 	beq.w	80005f4 <HAL_I2C_Init+0x134>
 80004c6:	b5f8      	push	{r3, r4, r5, r6, r7, lr}
 80004c8:	f890 303d 	ldrb.w	r3, [r0, #61]	; 0x3d
 80004cc:	4604      	mov	r4, r0
 80004ce:	f003 02ff 	and.w	r2, r3, #255	; 0xff
 80004d2:	2b00      	cmp	r3, #0
 80004d4:	f000 8087 	beq.w	80005e6 <HAL_I2C_Init+0x126>
 80004d8:	2324      	movs	r3, #36	; 0x24
 80004da:	6822      	ldr	r2, [r4, #0]
 80004dc:	f884 303d 	strb.w	r3, [r4, #61]	; 0x3d
 80004e0:	6813      	ldr	r3, [r2, #0]
 80004e2:	f023 0301 	bic.w	r3, r3, #1
 80004e6:	6013      	str	r3, [r2, #0]
 80004e8:	f000 fb6c 	bl	8000bc4 <HAL_RCC_GetPCLK1Freq>
 80004ec:	6862      	ldr	r2, [r4, #4]
 80004ee:	4b4b      	ldr	r3, [pc, #300]	; (800061c <HAL_I2C_Init+0x15c>)
 80004f0:	429a      	cmp	r2, r3
 80004f2:	d84b      	bhi.n	800058c <HAL_I2C_Init+0xcc>
 80004f4:	4b4a      	ldr	r3, [pc, #296]	; (8000620 <HAL_I2C_Init+0x160>)
 80004f6:	4298      	cmp	r0, r3
 80004f8:	d97a      	bls.n	80005f0 <HAL_I2C_Init+0x130>
 80004fa:	1e43      	subs	r3, r0, #1
 80004fc:	0052      	lsls	r2, r2, #1
 80004fe:	fbb3 f2f2 	udiv	r2, r3, r2
 8000502:	4948      	ldr	r1, [pc, #288]	; (8000624 <HAL_I2C_Init+0x164>)
 8000504:	6823      	ldr	r3, [r4, #0]
 8000506:	fba1 1000 	umull	r1, r0, r1, r0
 800050a:	6859      	ldr	r1, [r3, #4]
 800050c:	0c80      	lsrs	r0, r0, #18
 800050e:	f021 013f 	bic.w	r1, r1, #63	; 0x3f
 8000512:	4301      	orrs	r1, r0
 8000514:	6059      	str	r1, [r3, #4]
 8000516:	6a19      	ldr	r1, [r3, #32]
 8000518:	3001      	adds	r0, #1
 800051a:	f021 013f 	bic.w	r1, r1, #63	; 0x3f
 800051e:	4308      	orrs	r0, r1
 8000520:	6218      	str	r0, [r3, #32]
 8000522:	1c50      	adds	r0, r2, #1
 8000524:	f3c0 000b 	ubfx	r0, r0, #0, #12
 8000528:	2804      	cmp	r0, #4
 800052a:	bf38      	it	cc
 800052c:	2004      	movcc	r0, #4
 800052e:	69d9      	ldr	r1, [r3, #28]
 8000530:	f421 414f 	bic.w	r1, r1, #52992	; 0xcf00
 8000534:	f021 01ff 	bic.w	r1, r1, #255	; 0xff
 8000538:	2500      	movs	r5, #0
 800053a:	2620      	movs	r6, #32
 800053c:	4308      	orrs	r0, r1
 800053e:	61d8      	str	r0, [r3, #28]
 8000540:	6819      	ldr	r1, [r3, #0]
 8000542:	e9d4 2007 	ldrd	r2, r0, [r4, #28]
 8000546:	f021 01c0 	bic.w	r1, r1, #192	; 0xc0
 800054a:	4302      	orrs	r2, r0
 800054c:	430a      	orrs	r2, r1
 800054e:	601a      	str	r2, [r3, #0]
 8000550:	6899      	ldr	r1, [r3, #8]
 8000552:	e9d4 0203 	ldrd	r0, r2, [r4, #12]
 8000556:	f421 4103 	bic.w	r1, r1, #33536	; 0x8300
 800055a:	f021 01ff 	bic.w	r1, r1, #255	; 0xff
 800055e:	4302      	orrs	r2, r0
 8000560:	430a      	orrs	r2, r1
 8000562:	609a      	str	r2, [r3, #8]
 8000564:	68d9      	ldr	r1, [r3, #12]
 8000566:	e9d4 2005 	ldrd	r2, r0, [r4, #20]
 800056a:	f021 01ff 	bic.w	r1, r1, #255	; 0xff
 800056e:	4302      	orrs	r2, r0
 8000570:	430a      	orrs	r2, r1
 8000572:	60da      	str	r2, [r3, #12]
 8000574:	681a      	ldr	r2, [r3, #0]
 8000576:	4628      	mov	r0, r5
 8000578:	f042 0201 	orr.w	r2, r2, #1
 800057c:	601a      	str	r2, [r3, #0]
 800057e:	6425      	str	r5, [r4, #64]	; 0x40
 8000580:	f884 603d 	strb.w	r6, [r4, #61]	; 0x3d
 8000584:	6325      	str	r5, [r4, #48]	; 0x30
 8000586:	f884 503e 	strb.w	r5, [r4, #62]	; 0x3e
 800058a:	bdf8      	pop	{r3, r4, r5, r6, r7, pc}
 800058c:	4b26      	ldr	r3, [pc, #152]	; (8000628 <HAL_I2C_Init+0x168>)
 800058e:	4298      	cmp	r0, r3
 8000590:	d92e      	bls.n	80005f0 <HAL_I2C_Init+0x130>
 8000592:	f44f 7196 	mov.w	r1, #300	; 0x12c
 8000596:	4d23      	ldr	r5, [pc, #140]	; (8000624 <HAL_I2C_Init+0x164>)
 8000598:	6823      	ldr	r3, [r4, #0]
 800059a:	fba5 6500 	umull	r6, r5, r5, r0
 800059e:	0cad      	lsrs	r5, r5, #18
 80005a0:	fb01 f105 	mul.w	r1, r1, r5
 80005a4:	685e      	ldr	r6, [r3, #4]
 80005a6:	4f21      	ldr	r7, [pc, #132]	; (800062c <HAL_I2C_Init+0x16c>)
 80005a8:	f026 063f 	bic.w	r6, r6, #63	; 0x3f
 80005ac:	fba7 7101 	umull	r7, r1, r7, r1
 80005b0:	4335      	orrs	r5, r6
 80005b2:	605d      	str	r5, [r3, #4]
 80005b4:	6a1d      	ldr	r5, [r3, #32]
 80005b6:	0989      	lsrs	r1, r1, #6
 80005b8:	f025 053f 	bic.w	r5, r5, #63	; 0x3f
 80005bc:	3101      	adds	r1, #1
 80005be:	4329      	orrs	r1, r5
 80005c0:	6219      	str	r1, [r3, #32]
 80005c2:	69d9      	ldr	r1, [r3, #28]
 80005c4:	68a5      	ldr	r5, [r4, #8]
 80005c6:	f421 414f 	bic.w	r1, r1, #52992	; 0xcf00
 80005ca:	3801      	subs	r0, #1
 80005cc:	f021 01ff 	bic.w	r1, r1, #255	; 0xff
 80005d0:	b995      	cbnz	r5, 80005f8 <HAL_I2C_Init+0x138>
 80005d2:	eb02 0242 	add.w	r2, r2, r2, lsl #1
 80005d6:	fbb0 f0f2 	udiv	r0, r0, r2
 80005da:	3001      	adds	r0, #1
 80005dc:	f3c0 000b 	ubfx	r0, r0, #0, #12
 80005e0:	b9c0      	cbnz	r0, 8000614 <HAL_I2C_Init+0x154>
 80005e2:	2001      	movs	r0, #1
 80005e4:	e7a8      	b.n	8000538 <HAL_I2C_Init+0x78>
 80005e6:	f880 203c 	strb.w	r2, [r0, #60]	; 0x3c
 80005ea:	f001 f95d 	bl	80018a8 <HAL_I2C_MspInit>
 80005ee:	e773      	b.n	80004d8 <HAL_I2C_Init+0x18>
 80005f0:	2001      	movs	r0, #1
 80005f2:	bdf8      	pop	{r3, r4, r5, r6, r7, pc}
 80005f4:	2001      	movs	r0, #1
 80005f6:	4770      	bx	lr
 80005f8:	eb02 0282 	add.w	r2, r2, r2, lsl #2
 80005fc:	eb02 0282 	add.w	r2, r2, r2, lsl #2
 8000600:	fbb0 f0f2 	udiv	r0, r0, r2
 8000604:	3001      	adds	r0, #1
 8000606:	f3c0 000b 	ubfx	r0, r0, #0, #12
 800060a:	2800      	cmp	r0, #0
 800060c:	d0e9      	beq.n	80005e2 <HAL_I2C_Init+0x122>
 800060e:	f440 4040 	orr.w	r0, r0, #49152	; 0xc000
 8000612:	e791      	b.n	8000538 <HAL_I2C_Init+0x78>
 8000614:	f440 4000 	orr.w	r0, r0, #32768	; 0x8000
 8000618:	e78e      	b.n	8000538 <HAL_I2C_Init+0x78>
 800061a:	bf00      	nop
 800061c:	000186a0 	.word	0x000186a0
 8000620:	001e847f 	.word	0x001e847f
 8000624:	431bde83 	.word	0x431bde83
 8000628:	003d08ff 	.word	0x003d08ff
 800062c:	10624dd3 	.word	0x10624dd3

08000630 <HAL_PWR_EnableBkUpAccess>:
 8000630:	2201      	movs	r2, #1
 8000632:	4b01      	ldr	r3, [pc, #4]	; (8000638 <HAL_PWR_EnableBkUpAccess+0x8>)
 8000634:	601a      	str	r2, [r3, #0]
 8000636:	4770      	bx	lr
 8000638:	420e0020 	.word	0x420e0020

0800063c <HAL_RCC_OscConfig>:
 800063c:	2800      	cmp	r0, #0
 800063e:	f000 8155 	beq.w	80008ec <HAL_RCC_OscConfig+0x2b0>
 8000642:	e92d 41f0 	stmdb	sp!, {r4, r5, r6, r7, r8, lr}
 8000646:	6803      	ldr	r3, [r0, #0]
 8000648:	b082      	sub	sp, #8
 800064a:	07dd      	lsls	r5, r3, #31
 800064c:	4604      	mov	r4, r0
 800064e:	d535      	bpl.n	80006bc <HAL_RCC_OscConfig+0x80>
 8000650:	49a8      	ldr	r1, [pc, #672]	; (80008f4 <HAL_RCC_OscConfig+0x2b8>)
 8000652:	684a      	ldr	r2, [r1, #4]
 8000654:	f002 020c 	and.w	r2, r2, #12
 8000658:	2a04      	cmp	r2, #4
 800065a:	f000 8105 	beq.w	8000868 <HAL_RCC_OscConfig+0x22c>
 800065e:	684a      	ldr	r2, [r1, #4]
 8000660:	f002 020c 	and.w	r2, r2, #12
 8000664:	2a08      	cmp	r2, #8
 8000666:	f000 80fb 	beq.w	8000860 <HAL_RCC_OscConfig+0x224>
 800066a:	6863      	ldr	r3, [r4, #4]
 800066c:	f5b3 3f80 	cmp.w	r3, #65536	; 0x10000
 8000670:	d010      	beq.n	8000694 <HAL_RCC_OscConfig+0x58>
 8000672:	2b00      	cmp	r3, #0
 8000674:	f000 8120 	beq.w	80008b8 <HAL_RCC_OscConfig+0x27c>
 8000678:	f5b3 2fa0 	cmp.w	r3, #327680	; 0x50000
 800067c:	f000 8178 	beq.w	8000970 <HAL_RCC_OscConfig+0x334>
 8000680:	4b9c      	ldr	r3, [pc, #624]	; (80008f4 <HAL_RCC_OscConfig+0x2b8>)
 8000682:	681a      	ldr	r2, [r3, #0]
 8000684:	f422 3280 	bic.w	r2, r2, #65536	; 0x10000
 8000688:	601a      	str	r2, [r3, #0]
 800068a:	681a      	ldr	r2, [r3, #0]
 800068c:	f422 2280 	bic.w	r2, r2, #262144	; 0x40000
 8000690:	601a      	str	r2, [r3, #0]
 8000692:	e004      	b.n	800069e <HAL_RCC_OscConfig+0x62>
 8000694:	4a97      	ldr	r2, [pc, #604]	; (80008f4 <HAL_RCC_OscConfig+0x2b8>)
 8000696:	6813      	ldr	r3, [r2, #0]
 8000698:	f443 3380 	orr.w	r3, r3, #65536	; 0x10000
 800069c:	6013      	str	r3, [r2, #0]
 800069e:	f7ff fd97 	bl	80001d0 <HAL_GetTick>
 80006a2:	4d94      	ldr	r5, [pc, #592]	; (80008f4 <HAL_RCC_OscConfig+0x2b8>)
 80006a4:	4606      	mov	r6, r0
 80006a6:	e005      	b.n	80006b4 <HAL_RCC_OscConfig+0x78>
 80006a8:	f7ff fd92 	bl	80001d0 <HAL_GetTick>
 80006ac:	1b80      	subs	r0, r0, r6
 80006ae:	2864      	cmp	r0, #100	; 0x64
 80006b0:	f200 80f5 	bhi.w	800089e <HAL_RCC_OscConfig+0x262>
 80006b4:	682b      	ldr	r3, [r5, #0]
 80006b6:	039a      	lsls	r2, r3, #14
 80006b8:	d5f6      	bpl.n	80006a8 <HAL_RCC_OscConfig+0x6c>
 80006ba:	6823      	ldr	r3, [r4, #0]
 80006bc:	079f      	lsls	r7, r3, #30
 80006be:	d44d      	bmi.n	800075c <HAL_RCC_OscConfig+0x120>
 80006c0:	071a      	lsls	r2, r3, #28
 80006c2:	d522      	bpl.n	800070a <HAL_RCC_OscConfig+0xce>
 80006c4:	69a3      	ldr	r3, [r4, #24]
 80006c6:	2b00      	cmp	r3, #0
 80006c8:	f000 80ba 	beq.w	8000840 <HAL_RCC_OscConfig+0x204>
 80006cc:	2201      	movs	r2, #1
 80006ce:	4b8a      	ldr	r3, [pc, #552]	; (80008f8 <HAL_RCC_OscConfig+0x2bc>)
 80006d0:	4d88      	ldr	r5, [pc, #544]	; (80008f4 <HAL_RCC_OscConfig+0x2b8>)
 80006d2:	601a      	str	r2, [r3, #0]
 80006d4:	f7ff fd7c 	bl	80001d0 <HAL_GetTick>
 80006d8:	4606      	mov	r6, r0
 80006da:	e005      	b.n	80006e8 <HAL_RCC_OscConfig+0xac>
 80006dc:	f7ff fd78 	bl	80001d0 <HAL_GetTick>
 80006e0:	1b80      	subs	r0, r0, r6
 80006e2:	2802      	cmp	r0, #2
 80006e4:	f200 80db 	bhi.w	800089e <HAL_RCC_OscConfig+0x262>
 80006e8:	6a6b      	ldr	r3, [r5, #36]	; 0x24
 80006ea:	079b      	lsls	r3, r3, #30
 80006ec:	d5f6      	bpl.n	80006dc <HAL_RCC_OscConfig+0xa0>
 80006ee:	4b83      	ldr	r3, [pc, #524]	; (80008fc <HAL_RCC_OscConfig+0x2c0>)
 80006f0:	4a83      	ldr	r2, [pc, #524]	; (8000900 <HAL_RCC_OscConfig+0x2c4>)
 80006f2:	681b      	ldr	r3, [r3, #0]
 80006f4:	fba2 2303 	umull	r2, r3, r2, r3
 80006f8:	0a5b      	lsrs	r3, r3, #9
 80006fa:	9301      	str	r3, [sp, #4]
 80006fc:	bf00      	nop
 80006fe:	9b01      	ldr	r3, [sp, #4]
 8000700:	1e5a      	subs	r2, r3, #1
 8000702:	9201      	str	r2, [sp, #4]
 8000704:	2b00      	cmp	r3, #0
 8000706:	d1f9      	bne.n	80006fc <HAL_RCC_OscConfig+0xc0>
 8000708:	6823      	ldr	r3, [r4, #0]
 800070a:	075d      	lsls	r5, r3, #29
 800070c:	d569      	bpl.n	80007e2 <HAL_RCC_OscConfig+0x1a6>
 800070e:	4b79      	ldr	r3, [pc, #484]	; (80008f4 <HAL_RCC_OscConfig+0x2b8>)
 8000710:	69da      	ldr	r2, [r3, #28]
 8000712:	00d0      	lsls	r0, r2, #3
 8000714:	f100 80ec 	bmi.w	80008f0 <HAL_RCC_OscConfig+0x2b4>
 8000718:	2501      	movs	r5, #1
 800071a:	69da      	ldr	r2, [r3, #28]
 800071c:	f042 5280 	orr.w	r2, r2, #268435456	; 0x10000000
 8000720:	61da      	str	r2, [r3, #28]
 8000722:	69db      	ldr	r3, [r3, #28]
 8000724:	f003 5380 	and.w	r3, r3, #268435456	; 0x10000000
 8000728:	9300      	str	r3, [sp, #0]
 800072a:	9b00      	ldr	r3, [sp, #0]
 800072c:	4b75      	ldr	r3, [pc, #468]	; (8000904 <HAL_RCC_OscConfig+0x2c8>)
 800072e:	681a      	ldr	r2, [r3, #0]
 8000730:	05d1      	lsls	r1, r2, #23
 8000732:	f140 80a3 	bpl.w	800087c <HAL_RCC_OscConfig+0x240>
 8000736:	68e3      	ldr	r3, [r4, #12]
 8000738:	2b01      	cmp	r3, #1
 800073a:	d037      	beq.n	80007ac <HAL_RCC_OscConfig+0x170>
 800073c:	2b00      	cmp	r3, #0
 800073e:	f000 80e7 	beq.w	8000910 <HAL_RCC_OscConfig+0x2d4>
 8000742:	2b05      	cmp	r3, #5
 8000744:	4b6b      	ldr	r3, [pc, #428]	; (80008f4 <HAL_RCC_OscConfig+0x2b8>)
 8000746:	6a1a      	ldr	r2, [r3, #32]
 8000748:	f000 811f 	beq.w	800098a <HAL_RCC_OscConfig+0x34e>
 800074c:	f022 0201 	bic.w	r2, r2, #1
 8000750:	621a      	str	r2, [r3, #32]
 8000752:	6a1a      	ldr	r2, [r3, #32]
 8000754:	f022 0204 	bic.w	r2, r2, #4
 8000758:	621a      	str	r2, [r3, #32]
 800075a:	e02c      	b.n	80007b6 <HAL_RCC_OscConfig+0x17a>
 800075c:	4a65      	ldr	r2, [pc, #404]	; (80008f4 <HAL_RCC_OscConfig+0x2b8>)
 800075e:	6851      	ldr	r1, [r2, #4]
 8000760:	f011 0f0c 	tst.w	r1, #12
 8000764:	d061      	beq.n	800082a <HAL_RCC_OscConfig+0x1ee>
 8000766:	6851      	ldr	r1, [r2, #4]
 8000768:	f001 010c 	and.w	r1, r1, #12
 800076c:	2908      	cmp	r1, #8
 800076e:	d059      	beq.n	8000824 <HAL_RCC_OscConfig+0x1e8>
 8000770:	6923      	ldr	r3, [r4, #16]
 8000772:	2b00      	cmp	r3, #0
 8000774:	f000 80eb 	beq.w	800094e <HAL_RCC_OscConfig+0x312>
 8000778:	2201      	movs	r2, #1
 800077a:	4b63      	ldr	r3, [pc, #396]	; (8000908 <HAL_RCC_OscConfig+0x2cc>)
 800077c:	4d5d      	ldr	r5, [pc, #372]	; (80008f4 <HAL_RCC_OscConfig+0x2b8>)
 800077e:	601a      	str	r2, [r3, #0]
 8000780:	f7ff fd26 	bl	80001d0 <HAL_GetTick>
 8000784:	4606      	mov	r6, r0
 8000786:	e005      	b.n	8000794 <HAL_RCC_OscConfig+0x158>
 8000788:	f7ff fd22 	bl	80001d0 <HAL_GetTick>
 800078c:	1b80      	subs	r0, r0, r6
 800078e:	2802      	cmp	r0, #2
 8000790:	f200 8085 	bhi.w	800089e <HAL_RCC_OscConfig+0x262>
 8000794:	682b      	ldr	r3, [r5, #0]
 8000796:	0798      	lsls	r0, r3, #30
 8000798:	d5f6      	bpl.n	8000788 <HAL_RCC_OscConfig+0x14c>
 800079a:	682b      	ldr	r3, [r5, #0]
 800079c:	6962      	ldr	r2, [r4, #20]
 800079e:	f023 03f8 	bic.w	r3, r3, #248	; 0xf8
 80007a2:	ea43 03c2 	orr.w	r3, r3, r2, lsl #3
 80007a6:	602b      	str	r3, [r5, #0]
 80007a8:	6823      	ldr	r3, [r4, #0]
 80007aa:	e789      	b.n	80006c0 <HAL_RCC_OscConfig+0x84>
 80007ac:	4a51      	ldr	r2, [pc, #324]	; (80008f4 <HAL_RCC_OscConfig+0x2b8>)
 80007ae:	6a13      	ldr	r3, [r2, #32]
 80007b0:	f043 0301 	orr.w	r3, r3, #1
 80007b4:	6213      	str	r3, [r2, #32]
 80007b6:	f7ff fd0b 	bl	80001d0 <HAL_GetTick>
 80007ba:	4e4e      	ldr	r6, [pc, #312]	; (80008f4 <HAL_RCC_OscConfig+0x2b8>)
 80007bc:	4680      	mov	r8, r0
 80007be:	f241 3788 	movw	r7, #5000	; 0x1388
 80007c2:	e005      	b.n	80007d0 <HAL_RCC_OscConfig+0x194>
 80007c4:	f7ff fd04 	bl	80001d0 <HAL_GetTick>
 80007c8:	eba0 0008 	sub.w	r0, r0, r8
 80007cc:	42b8      	cmp	r0, r7
 80007ce:	d866      	bhi.n	800089e <HAL_RCC_OscConfig+0x262>
 80007d0:	6a33      	ldr	r3, [r6, #32]
 80007d2:	079b      	lsls	r3, r3, #30
 80007d4:	d5f6      	bpl.n	80007c4 <HAL_RCC_OscConfig+0x188>
 80007d6:	b125      	cbz	r5, 80007e2 <HAL_RCC_OscConfig+0x1a6>
 80007d8:	4a46      	ldr	r2, [pc, #280]	; (80008f4 <HAL_RCC_OscConfig+0x2b8>)
 80007da:	69d3      	ldr	r3, [r2, #28]
 80007dc:	f023 5380 	bic.w	r3, r3, #268435456	; 0x10000000
 80007e0:	61d3      	str	r3, [r2, #28]
 80007e2:	69e0      	ldr	r0, [r4, #28]
 80007e4:	b1d0      	cbz	r0, 800081c <HAL_RCC_OscConfig+0x1e0>
 80007e6:	4d43      	ldr	r5, [pc, #268]	; (80008f4 <HAL_RCC_OscConfig+0x2b8>)
 80007e8:	686a      	ldr	r2, [r5, #4]
 80007ea:	f002 020c 	and.w	r2, r2, #12
 80007ee:	2a08      	cmp	r2, #8
 80007f0:	f000 80d3 	beq.w	800099a <HAL_RCC_OscConfig+0x35e>
 80007f4:	2802      	cmp	r0, #2
 80007f6:	f04f 0100 	mov.w	r1, #0
 80007fa:	4a44      	ldr	r2, [pc, #272]	; (800090c <HAL_RCC_OscConfig+0x2d0>)
 80007fc:	f000 80de 	beq.w	80009bc <HAL_RCC_OscConfig+0x380>
 8000800:	6011      	str	r1, [r2, #0]
 8000802:	f7ff fce5 	bl	80001d0 <HAL_GetTick>
 8000806:	462c      	mov	r4, r5
 8000808:	4605      	mov	r5, r0
 800080a:	e004      	b.n	8000816 <HAL_RCC_OscConfig+0x1da>
 800080c:	f7ff fce0 	bl	80001d0 <HAL_GetTick>
 8000810:	1b40      	subs	r0, r0, r5
 8000812:	2802      	cmp	r0, #2
 8000814:	d843      	bhi.n	800089e <HAL_RCC_OscConfig+0x262>
 8000816:	6823      	ldr	r3, [r4, #0]
 8000818:	019b      	lsls	r3, r3, #6
 800081a:	d4f7      	bmi.n	800080c <HAL_RCC_OscConfig+0x1d0>
 800081c:	2000      	movs	r0, #0
 800081e:	b002      	add	sp, #8
 8000820:	e8bd 81f0 	ldmia.w	sp!, {r4, r5, r6, r7, r8, pc}
 8000824:	6852      	ldr	r2, [r2, #4]
 8000826:	03d6      	lsls	r6, r2, #15
 8000828:	d4a2      	bmi.n	8000770 <HAL_RCC_OscConfig+0x134>
 800082a:	4a32      	ldr	r2, [pc, #200]	; (80008f4 <HAL_RCC_OscConfig+0x2b8>)
 800082c:	6812      	ldr	r2, [r2, #0]
 800082e:	0795      	lsls	r5, r2, #30
 8000830:	d539      	bpl.n	80008a6 <HAL_RCC_OscConfig+0x26a>
 8000832:	6922      	ldr	r2, [r4, #16]
 8000834:	2a01      	cmp	r2, #1
 8000836:	d036      	beq.n	80008a6 <HAL_RCC_OscConfig+0x26a>
 8000838:	2001      	movs	r0, #1
 800083a:	b002      	add	sp, #8
 800083c:	e8bd 81f0 	ldmia.w	sp!, {r4, r5, r6, r7, r8, pc}
 8000840:	4a2d      	ldr	r2, [pc, #180]	; (80008f8 <HAL_RCC_OscConfig+0x2bc>)
 8000842:	4d2c      	ldr	r5, [pc, #176]	; (80008f4 <HAL_RCC_OscConfig+0x2b8>)
 8000844:	6013      	str	r3, [r2, #0]
 8000846:	f7ff fcc3 	bl	80001d0 <HAL_GetTick>
 800084a:	4606      	mov	r6, r0
 800084c:	e004      	b.n	8000858 <HAL_RCC_OscConfig+0x21c>
 800084e:	f7ff fcbf 	bl	80001d0 <HAL_GetTick>
 8000852:	1b80      	subs	r0, r0, r6
 8000854:	2802      	cmp	r0, #2
 8000856:	d822      	bhi.n	800089e <HAL_RCC_OscConfig+0x262>
 8000858:	6a6b      	ldr	r3, [r5, #36]	; 0x24
 800085a:	079f      	lsls	r7, r3, #30
 800085c:	d4f7      	bmi.n	800084e <HAL_RCC_OscConfig+0x212>
 800085e:	e753      	b.n	8000708 <HAL_RCC_OscConfig+0xcc>
 8000860:	684a      	ldr	r2, [r1, #4]
 8000862:	03d0      	lsls	r0, r2, #15
 8000864:	f57f af01 	bpl.w	800066a <HAL_RCC_OscConfig+0x2e>
 8000868:	4a22      	ldr	r2, [pc, #136]	; (80008f4 <HAL_RCC_OscConfig+0x2b8>)
 800086a:	6812      	ldr	r2, [r2, #0]
 800086c:	0391      	lsls	r1, r2, #14
 800086e:	f57f af25 	bpl.w	80006bc <HAL_RCC_OscConfig+0x80>
 8000872:	6862      	ldr	r2, [r4, #4]
 8000874:	2a00      	cmp	r2, #0
 8000876:	f47f af21 	bne.w	80006bc <HAL_RCC_OscConfig+0x80>
 800087a:	e7dd      	b.n	8000838 <HAL_RCC_OscConfig+0x1fc>
 800087c:	681a      	ldr	r2, [r3, #0]
 800087e:	461e      	mov	r6, r3
 8000880:	f442 7280 	orr.w	r2, r2, #256	; 0x100
 8000884:	601a      	str	r2, [r3, #0]
 8000886:	f7ff fca3 	bl	80001d0 <HAL_GetTick>
 800088a:	4607      	mov	r7, r0
 800088c:	6833      	ldr	r3, [r6, #0]
 800088e:	05da      	lsls	r2, r3, #23
 8000890:	f53f af51 	bmi.w	8000736 <HAL_RCC_OscConfig+0xfa>
 8000894:	f7ff fc9c 	bl	80001d0 <HAL_GetTick>
 8000898:	1bc0      	subs	r0, r0, r7
 800089a:	2864      	cmp	r0, #100	; 0x64
 800089c:	d9f6      	bls.n	800088c <HAL_RCC_OscConfig+0x250>
 800089e:	2003      	movs	r0, #3
 80008a0:	b002      	add	sp, #8
 80008a2:	e8bd 81f0 	ldmia.w	sp!, {r4, r5, r6, r7, r8, pc}
 80008a6:	4913      	ldr	r1, [pc, #76]	; (80008f4 <HAL_RCC_OscConfig+0x2b8>)
 80008a8:	6960      	ldr	r0, [r4, #20]
 80008aa:	680a      	ldr	r2, [r1, #0]
 80008ac:	f022 02f8 	bic.w	r2, r2, #248	; 0xf8
 80008b0:	ea42 02c0 	orr.w	r2, r2, r0, lsl #3
 80008b4:	600a      	str	r2, [r1, #0]
 80008b6:	e703      	b.n	80006c0 <HAL_RCC_OscConfig+0x84>
 80008b8:	f103 4380 	add.w	r3, r3, #1073741824	; 0x40000000
 80008bc:	f503 3304 	add.w	r3, r3, #135168	; 0x21000
 80008c0:	681a      	ldr	r2, [r3, #0]
 80008c2:	461d      	mov	r5, r3
 80008c4:	f422 3280 	bic.w	r2, r2, #65536	; 0x10000
 80008c8:	601a      	str	r2, [r3, #0]
 80008ca:	681a      	ldr	r2, [r3, #0]
 80008cc:	f422 2280 	bic.w	r2, r2, #262144	; 0x40000
 80008d0:	601a      	str	r2, [r3, #0]
 80008d2:	f7ff fc7d 	bl	80001d0 <HAL_GetTick>
 80008d6:	4606      	mov	r6, r0
 80008d8:	e004      	b.n	80008e4 <HAL_RCC_OscConfig+0x2a8>
 80008da:	f7ff fc79 	bl	80001d0 <HAL_GetTick>
 80008de:	1b80      	subs	r0, r0, r6
 80008e0:	2864      	cmp	r0, #100	; 0x64
 80008e2:	d8dc      	bhi.n	800089e <HAL_RCC_OscConfig+0x262>
 80008e4:	682b      	ldr	r3, [r5, #0]
 80008e6:	039b      	lsls	r3, r3, #14
 80008e8:	d4f7      	bmi.n	80008da <HAL_RCC_OscConfig+0x29e>
 80008ea:	e6e6      	b.n	80006ba <HAL_RCC_OscConfig+0x7e>
 80008ec:	2001      	movs	r0, #1
 80008ee:	4770      	bx	lr
 80008f0:	2500      	movs	r5, #0
 80008f2:	e71b      	b.n	800072c <HAL_RCC_OscConfig+0xf0>
 80008f4:	40021000 	.word	0x40021000
 80008f8:	42420480 	.word	0x42420480
 80008fc:	20000008 	.word	0x20000008
 8000900:	10624dd3 	.word	0x10624dd3
 8000904:	40007000 	.word	0x40007000
 8000908:	42420000 	.word	0x42420000
 800090c:	42420060 	.word	0x42420060
 8000910:	f103 4380 	add.w	r3, r3, #1073741824	; 0x40000000
 8000914:	f503 3304 	add.w	r3, r3, #135168	; 0x21000
 8000918:	6a1a      	ldr	r2, [r3, #32]
 800091a:	461e      	mov	r6, r3
 800091c:	f022 0201 	bic.w	r2, r2, #1
 8000920:	621a      	str	r2, [r3, #32]
 8000922:	6a1a      	ldr	r2, [r3, #32]
 8000924:	f241 3888 	movw	r8, #5000	; 0x1388
 8000928:	f022 0204 	bic.w	r2, r2, #4
 800092c:	621a      	str	r2, [r3, #32]
 800092e:	f7ff fc4f 	bl	80001d0 <HAL_GetTick>
 8000932:	4607      	mov	r7, r0
 8000934:	e004      	b.n	8000940 <HAL_RCC_OscConfig+0x304>
 8000936:	f7ff fc4b 	bl	80001d0 <HAL_GetTick>
 800093a:	1bc0      	subs	r0, r0, r7
 800093c:	4540      	cmp	r0, r8
 800093e:	d8ae      	bhi.n	800089e <HAL_RCC_OscConfig+0x262>
 8000940:	6a33      	ldr	r3, [r6, #32]
 8000942:	0798      	lsls	r0, r3, #30
 8000944:	d4f7      	bmi.n	8000936 <HAL_RCC_OscConfig+0x2fa>
 8000946:	2d00      	cmp	r5, #0
 8000948:	f43f af4b 	beq.w	80007e2 <HAL_RCC_OscConfig+0x1a6>
 800094c:	e744      	b.n	80007d8 <HAL_RCC_OscConfig+0x19c>
 800094e:	4a34      	ldr	r2, [pc, #208]	; (8000a20 <HAL_RCC_OscConfig+0x3e4>)
 8000950:	4d34      	ldr	r5, [pc, #208]	; (8000a24 <HAL_RCC_OscConfig+0x3e8>)
 8000952:	6013      	str	r3, [r2, #0]
 8000954:	f7ff fc3c 	bl	80001d0 <HAL_GetTick>
 8000958:	4606      	mov	r6, r0
 800095a:	e004      	b.n	8000966 <HAL_RCC_OscConfig+0x32a>
 800095c:	f7ff fc38 	bl	80001d0 <HAL_GetTick>
 8000960:	1b80      	subs	r0, r0, r6
 8000962:	2802      	cmp	r0, #2
 8000964:	d89b      	bhi.n	800089e <HAL_RCC_OscConfig+0x262>
 8000966:	682b      	ldr	r3, [r5, #0]
 8000968:	0799      	lsls	r1, r3, #30
 800096a:	d4f7      	bmi.n	800095c <HAL_RCC_OscConfig+0x320>
 800096c:	6823      	ldr	r3, [r4, #0]
 800096e:	e6a7      	b.n	80006c0 <HAL_RCC_OscConfig+0x84>
 8000970:	f103 4380 	add.w	r3, r3, #1073741824	; 0x40000000
 8000974:	f5a3 333c 	sub.w	r3, r3, #192512	; 0x2f000
 8000978:	681a      	ldr	r2, [r3, #0]
 800097a:	f442 2280 	orr.w	r2, r2, #262144	; 0x40000
 800097e:	601a      	str	r2, [r3, #0]
 8000980:	681a      	ldr	r2, [r3, #0]
 8000982:	f442 3280 	orr.w	r2, r2, #65536	; 0x10000
 8000986:	601a      	str	r2, [r3, #0]
 8000988:	e689      	b.n	800069e <HAL_RCC_OscConfig+0x62>
 800098a:	f042 0204 	orr.w	r2, r2, #4
 800098e:	621a      	str	r2, [r3, #32]
 8000990:	6a1a      	ldr	r2, [r3, #32]
 8000992:	f042 0201 	orr.w	r2, r2, #1
 8000996:	621a      	str	r2, [r3, #32]
 8000998:	e70d      	b.n	80007b6 <HAL_RCC_OscConfig+0x17a>
 800099a:	2801      	cmp	r0, #1
 800099c:	f43f af4d 	beq.w	800083a <HAL_RCC_OscConfig+0x1fe>
 80009a0:	686b      	ldr	r3, [r5, #4]
 80009a2:	6a22      	ldr	r2, [r4, #32]
 80009a4:	f403 3180 	and.w	r1, r3, #65536	; 0x10000
 80009a8:	4291      	cmp	r1, r2
 80009aa:	f47f af45 	bne.w	8000838 <HAL_RCC_OscConfig+0x1fc>
 80009ae:	6a60      	ldr	r0, [r4, #36]	; 0x24
 80009b0:	f403 1370 	and.w	r3, r3, #3932160	; 0x3c0000
 80009b4:	1a18      	subs	r0, r3, r0
 80009b6:	bf18      	it	ne
 80009b8:	2001      	movne	r0, #1
 80009ba:	e73e      	b.n	800083a <HAL_RCC_OscConfig+0x1fe>
 80009bc:	6011      	str	r1, [r2, #0]
 80009be:	f7ff fc07 	bl	80001d0 <HAL_GetTick>
 80009c2:	4606      	mov	r6, r0
 80009c4:	e005      	b.n	80009d2 <HAL_RCC_OscConfig+0x396>
 80009c6:	f7ff fc03 	bl	80001d0 <HAL_GetTick>
 80009ca:	1b80      	subs	r0, r0, r6
 80009cc:	2802      	cmp	r0, #2
 80009ce:	f63f af66 	bhi.w	800089e <HAL_RCC_OscConfig+0x262>
 80009d2:	682b      	ldr	r3, [r5, #0]
 80009d4:	0199      	lsls	r1, r3, #6
 80009d6:	d4f6      	bmi.n	80009c6 <HAL_RCC_OscConfig+0x38a>
 80009d8:	6a22      	ldr	r2, [r4, #32]
 80009da:	f5b2 3f80 	cmp.w	r2, #65536	; 0x10000
 80009de:	d105      	bne.n	80009ec <HAL_RCC_OscConfig+0x3b0>
 80009e0:	686b      	ldr	r3, [r5, #4]
 80009e2:	68a1      	ldr	r1, [r4, #8]
 80009e4:	f423 3300 	bic.w	r3, r3, #131072	; 0x20000
 80009e8:	430b      	orrs	r3, r1
 80009ea:	606b      	str	r3, [r5, #4]
 80009ec:	2501      	movs	r5, #1
 80009ee:	4b0d      	ldr	r3, [pc, #52]	; (8000a24 <HAL_RCC_OscConfig+0x3e8>)
 80009f0:	6a60      	ldr	r0, [r4, #36]	; 0x24
 80009f2:	6859      	ldr	r1, [r3, #4]
 80009f4:	4302      	orrs	r2, r0
 80009f6:	f421 1174 	bic.w	r1, r1, #3997696	; 0x3d0000
 80009fa:	480b      	ldr	r0, [pc, #44]	; (8000a28 <HAL_RCC_OscConfig+0x3ec>)
 80009fc:	430a      	orrs	r2, r1
 80009fe:	605a      	str	r2, [r3, #4]
 8000a00:	6005      	str	r5, [r0, #0]
 8000a02:	461c      	mov	r4, r3
 8000a04:	f7ff fbe4 	bl	80001d0 <HAL_GetTick>
 8000a08:	4605      	mov	r5, r0
 8000a0a:	e005      	b.n	8000a18 <HAL_RCC_OscConfig+0x3dc>
 8000a0c:	f7ff fbe0 	bl	80001d0 <HAL_GetTick>
 8000a10:	1b40      	subs	r0, r0, r5
 8000a12:	2802      	cmp	r0, #2
 8000a14:	f63f af43 	bhi.w	800089e <HAL_RCC_OscConfig+0x262>
 8000a18:	6823      	ldr	r3, [r4, #0]
 8000a1a:	019a      	lsls	r2, r3, #6
 8000a1c:	d5f6      	bpl.n	8000a0c <HAL_RCC_OscConfig+0x3d0>
 8000a1e:	e6fd      	b.n	800081c <HAL_RCC_OscConfig+0x1e0>
 8000a20:	42420000 	.word	0x42420000
 8000a24:	40021000 	.word	0x40021000
 8000a28:	42420060 	.word	0x42420060

08000a2c <HAL_RCC_ClockConfig>:
 8000a2c:	b178      	cbz	r0, 8000a4e <HAL_RCC_ClockConfig+0x22>
 8000a2e:	4a5d      	ldr	r2, [pc, #372]	; (8000ba4 <HAL_RCC_ClockConfig+0x178>)
 8000a30:	6813      	ldr	r3, [r2, #0]
 8000a32:	f003 0307 	and.w	r3, r3, #7
 8000a36:	428b      	cmp	r3, r1
 8000a38:	d20b      	bcs.n	8000a52 <HAL_RCC_ClockConfig+0x26>
 8000a3a:	6813      	ldr	r3, [r2, #0]
 8000a3c:	f023 0307 	bic.w	r3, r3, #7
 8000a40:	430b      	orrs	r3, r1
 8000a42:	6013      	str	r3, [r2, #0]
 8000a44:	6813      	ldr	r3, [r2, #0]
 8000a46:	f003 0307 	and.w	r3, r3, #7
 8000a4a:	428b      	cmp	r3, r1
 8000a4c:	d001      	beq.n	8000a52 <HAL_RCC_ClockConfig+0x26>
 8000a4e:	2001      	movs	r0, #1
 8000a50:	4770      	bx	lr
 8000a52:	e92d 41f0 	stmdb	sp!, {r4, r5, r6, r7, r8, lr}
 8000a56:	6803      	ldr	r3, [r0, #0]
 8000a58:	b086      	sub	sp, #24
 8000a5a:	079d      	lsls	r5, r3, #30
 8000a5c:	d514      	bpl.n	8000a88 <HAL_RCC_ClockConfig+0x5c>
 8000a5e:	075c      	lsls	r4, r3, #29
 8000a60:	d504      	bpl.n	8000a6c <HAL_RCC_ClockConfig+0x40>
 8000a62:	4c51      	ldr	r4, [pc, #324]	; (8000ba8 <HAL_RCC_ClockConfig+0x17c>)
 8000a64:	6862      	ldr	r2, [r4, #4]
 8000a66:	f442 62e0 	orr.w	r2, r2, #1792	; 0x700
 8000a6a:	6062      	str	r2, [r4, #4]
 8000a6c:	071a      	lsls	r2, r3, #28
 8000a6e:	d504      	bpl.n	8000a7a <HAL_RCC_ClockConfig+0x4e>
 8000a70:	4c4d      	ldr	r4, [pc, #308]	; (8000ba8 <HAL_RCC_ClockConfig+0x17c>)
 8000a72:	6862      	ldr	r2, [r4, #4]
 8000a74:	f442 5260 	orr.w	r2, r2, #14336	; 0x3800
 8000a78:	6062      	str	r2, [r4, #4]
 8000a7a:	4c4b      	ldr	r4, [pc, #300]	; (8000ba8 <HAL_RCC_ClockConfig+0x17c>)
 8000a7c:	6885      	ldr	r5, [r0, #8]
 8000a7e:	6862      	ldr	r2, [r4, #4]
 8000a80:	f022 02f0 	bic.w	r2, r2, #240	; 0xf0
 8000a84:	432a      	orrs	r2, r5
 8000a86:	6062      	str	r2, [r4, #4]
 8000a88:	07db      	lsls	r3, r3, #31
 8000a8a:	4604      	mov	r4, r0
 8000a8c:	460d      	mov	r5, r1
 8000a8e:	d520      	bpl.n	8000ad2 <HAL_RCC_ClockConfig+0xa6>
 8000a90:	6842      	ldr	r2, [r0, #4]
 8000a92:	4b45      	ldr	r3, [pc, #276]	; (8000ba8 <HAL_RCC_ClockConfig+0x17c>)
 8000a94:	2a01      	cmp	r2, #1
 8000a96:	681b      	ldr	r3, [r3, #0]
 8000a98:	d06f      	beq.n	8000b7a <HAL_RCC_ClockConfig+0x14e>
 8000a9a:	2a02      	cmp	r2, #2
 8000a9c:	d07e      	beq.n	8000b9c <HAL_RCC_ClockConfig+0x170>
 8000a9e:	0798      	lsls	r0, r3, #30
 8000aa0:	d527      	bpl.n	8000af2 <HAL_RCC_ClockConfig+0xc6>
 8000aa2:	4e41      	ldr	r6, [pc, #260]	; (8000ba8 <HAL_RCC_ClockConfig+0x17c>)
 8000aa4:	f241 3888 	movw	r8, #5000	; 0x1388
 8000aa8:	6873      	ldr	r3, [r6, #4]
 8000aaa:	f023 0303 	bic.w	r3, r3, #3
 8000aae:	4313      	orrs	r3, r2
 8000ab0:	6073      	str	r3, [r6, #4]
 8000ab2:	f7ff fb8d 	bl	80001d0 <HAL_GetTick>
 8000ab6:	4607      	mov	r7, r0
 8000ab8:	e004      	b.n	8000ac4 <HAL_RCC_ClockConfig+0x98>
 8000aba:	f7ff fb89 	bl	80001d0 <HAL_GetTick>
 8000abe:	1bc0      	subs	r0, r0, r7
 8000ac0:	4540      	cmp	r0, r8
 8000ac2:	d869      	bhi.n	8000b98 <HAL_RCC_ClockConfig+0x16c>
 8000ac4:	6873      	ldr	r3, [r6, #4]
 8000ac6:	6862      	ldr	r2, [r4, #4]
 8000ac8:	f003 030c 	and.w	r3, r3, #12
 8000acc:	ebb3 0f82 	cmp.w	r3, r2, lsl #2
 8000ad0:	d1f3      	bne.n	8000aba <HAL_RCC_ClockConfig+0x8e>
 8000ad2:	4a34      	ldr	r2, [pc, #208]	; (8000ba4 <HAL_RCC_ClockConfig+0x178>)
 8000ad4:	6813      	ldr	r3, [r2, #0]
 8000ad6:	f003 0307 	and.w	r3, r3, #7
 8000ada:	42ab      	cmp	r3, r5
 8000adc:	d90d      	bls.n	8000afa <HAL_RCC_ClockConfig+0xce>
 8000ade:	6813      	ldr	r3, [r2, #0]
 8000ae0:	f023 0307 	bic.w	r3, r3, #7
 8000ae4:	432b      	orrs	r3, r5
 8000ae6:	6013      	str	r3, [r2, #0]
 8000ae8:	6813      	ldr	r3, [r2, #0]
 8000aea:	f003 0307 	and.w	r3, r3, #7
 8000aee:	42ab      	cmp	r3, r5
 8000af0:	d003      	beq.n	8000afa <HAL_RCC_ClockConfig+0xce>
 8000af2:	2001      	movs	r0, #1
 8000af4:	b006      	add	sp, #24
 8000af6:	e8bd 81f0 	ldmia.w	sp!, {r4, r5, r6, r7, r8, pc}
 8000afa:	6823      	ldr	r3, [r4, #0]
 8000afc:	0759      	lsls	r1, r3, #29
 8000afe:	d506      	bpl.n	8000b0e <HAL_RCC_ClockConfig+0xe2>
 8000b00:	4929      	ldr	r1, [pc, #164]	; (8000ba8 <HAL_RCC_ClockConfig+0x17c>)
 8000b02:	68e0      	ldr	r0, [r4, #12]
 8000b04:	684a      	ldr	r2, [r1, #4]
 8000b06:	f422 62e0 	bic.w	r2, r2, #1792	; 0x700
 8000b0a:	4302      	orrs	r2, r0
 8000b0c:	604a      	str	r2, [r1, #4]
 8000b0e:	071a      	lsls	r2, r3, #28
 8000b10:	d507      	bpl.n	8000b22 <HAL_RCC_ClockConfig+0xf6>
 8000b12:	4a25      	ldr	r2, [pc, #148]	; (8000ba8 <HAL_RCC_ClockConfig+0x17c>)
 8000b14:	6921      	ldr	r1, [r4, #16]
 8000b16:	6853      	ldr	r3, [r2, #4]
 8000b18:	f423 5360 	bic.w	r3, r3, #14336	; 0x3800
 8000b1c:	ea43 03c1 	orr.w	r3, r3, r1, lsl #3
 8000b20:	6053      	str	r3, [r2, #4]
 8000b22:	f240 2201 	movw	r2, #513	; 0x201
 8000b26:	4b21      	ldr	r3, [pc, #132]	; (8000bac <HAL_RCC_ClockConfig+0x180>)
 8000b28:	ac06      	add	r4, sp, #24
 8000b2a:	f8ad 2004 	strh.w	r2, [sp, #4]
 8000b2e:	cb0f      	ldmia	r3, {r0, r1, r2, r3}
 8000b30:	e904 000f 	stmdb	r4, {r0, r1, r2, r3}
 8000b34:	491c      	ldr	r1, [pc, #112]	; (8000ba8 <HAL_RCC_ClockConfig+0x17c>)
 8000b36:	684a      	ldr	r2, [r1, #4]
 8000b38:	f002 030c 	and.w	r3, r2, #12
 8000b3c:	2b08      	cmp	r3, #8
 8000b3e:	d11a      	bne.n	8000b76 <HAL_RCC_ClockConfig+0x14a>
 8000b40:	f3c2 4383 	ubfx	r3, r2, #18, #4
 8000b44:	4423      	add	r3, r4
 8000b46:	f813 0c10 	ldrb.w	r0, [r3, #-16]
 8000b4a:	03d3      	lsls	r3, r2, #15
 8000b4c:	d418      	bmi.n	8000b80 <HAL_RCC_ClockConfig+0x154>
 8000b4e:	4b18      	ldr	r3, [pc, #96]	; (8000bb0 <HAL_RCC_ClockConfig+0x184>)
 8000b50:	fb03 f300 	mul.w	r3, r3, r0
 8000b54:	4a14      	ldr	r2, [pc, #80]	; (8000ba8 <HAL_RCC_ClockConfig+0x17c>)
 8000b56:	4817      	ldr	r0, [pc, #92]	; (8000bb4 <HAL_RCC_ClockConfig+0x188>)
 8000b58:	6852      	ldr	r2, [r2, #4]
 8000b5a:	4917      	ldr	r1, [pc, #92]	; (8000bb8 <HAL_RCC_ClockConfig+0x18c>)
 8000b5c:	f3c2 1203 	ubfx	r2, r2, #4, #4
 8000b60:	5c80      	ldrb	r0, [r0, r2]
 8000b62:	4a16      	ldr	r2, [pc, #88]	; (8000bbc <HAL_RCC_ClockConfig+0x190>)
 8000b64:	40c3      	lsrs	r3, r0
 8000b66:	6808      	ldr	r0, [r1, #0]
 8000b68:	6013      	str	r3, [r2, #0]
 8000b6a:	f7ff faef 	bl	800014c <HAL_InitTick>
 8000b6e:	2000      	movs	r0, #0
 8000b70:	b006      	add	sp, #24
 8000b72:	e8bd 81f0 	ldmia.w	sp!, {r4, r5, r6, r7, r8, pc}
 8000b76:	4b12      	ldr	r3, [pc, #72]	; (8000bc0 <HAL_RCC_ClockConfig+0x194>)
 8000b78:	e7ec      	b.n	8000b54 <HAL_RCC_ClockConfig+0x128>
 8000b7a:	039f      	lsls	r7, r3, #14
 8000b7c:	d491      	bmi.n	8000aa2 <HAL_RCC_ClockConfig+0x76>
 8000b7e:	e7b8      	b.n	8000af2 <HAL_RCC_ClockConfig+0xc6>
 8000b80:	684a      	ldr	r2, [r1, #4]
 8000b82:	4b0f      	ldr	r3, [pc, #60]	; (8000bc0 <HAL_RCC_ClockConfig+0x194>)
 8000b84:	f3c2 4240 	ubfx	r2, r2, #17, #1
 8000b88:	fb03 f300 	mul.w	r3, r3, r0
 8000b8c:	4422      	add	r2, r4
 8000b8e:	f812 2c14 	ldrb.w	r2, [r2, #-20]
 8000b92:	fbb3 f3f2 	udiv	r3, r3, r2
 8000b96:	e7dd      	b.n	8000b54 <HAL_RCC_ClockConfig+0x128>
 8000b98:	2003      	movs	r0, #3
 8000b9a:	e7ab      	b.n	8000af4 <HAL_RCC_ClockConfig+0xc8>
 8000b9c:	019e      	lsls	r6, r3, #6
 8000b9e:	d480      	bmi.n	8000aa2 <HAL_RCC_ClockConfig+0x76>
 8000ba0:	e7a7      	b.n	8000af2 <HAL_RCC_ClockConfig+0xc6>
 8000ba2:	bf00      	nop
 8000ba4:	40022000 	.word	0x40022000
 8000ba8:	40021000 	.word	0x40021000
 8000bac:	08001b44 	.word	0x08001b44
 8000bb0:	003d0900 	.word	0x003d0900
 8000bb4:	08001b64 	.word	0x08001b64
 8000bb8:	20000004 	.word	0x20000004
 8000bbc:	20000008 	.word	0x20000008
 8000bc0:	007a1200 	.word	0x007a1200

08000bc4 <HAL_RCC_GetPCLK1Freq>:
 8000bc4:	4b04      	ldr	r3, [pc, #16]	; (8000bd8 <HAL_RCC_GetPCLK1Freq+0x14>)
 8000bc6:	4905      	ldr	r1, [pc, #20]	; (8000bdc <HAL_RCC_GetPCLK1Freq+0x18>)
 8000bc8:	685b      	ldr	r3, [r3, #4]
 8000bca:	4a05      	ldr	r2, [pc, #20]	; (8000be0 <HAL_RCC_GetPCLK1Freq+0x1c>)
 8000bcc:	f3c3 2302 	ubfx	r3, r3, #8, #3
 8000bd0:	5ccb      	ldrb	r3, [r1, r3]
 8000bd2:	6810      	ldr	r0, [r2, #0]
 8000bd4:	40d8      	lsrs	r0, r3
 8000bd6:	4770      	bx	lr
 8000bd8:	40021000 	.word	0x40021000
 8000bdc:	08001b74 	.word	0x08001b74
 8000be0:	20000008 	.word	0x20000008

08000be4 <HAL_RCC_GetPCLK2Freq>:
 8000be4:	4b04      	ldr	r3, [pc, #16]	; (8000bf8 <HAL_RCC_GetPCLK2Freq+0x14>)
 8000be6:	4905      	ldr	r1, [pc, #20]	; (8000bfc <HAL_RCC_GetPCLK2Freq+0x18>)
 8000be8:	685b      	ldr	r3, [r3, #4]
 8000bea:	4a05      	ldr	r2, [pc, #20]	; (8000c00 <HAL_RCC_GetPCLK2Freq+0x1c>)
 8000bec:	f3c3 23c2 	ubfx	r3, r3, #11, #3
 8000bf0:	5ccb      	ldrb	r3, [r1, r3]
 8000bf2:	6810      	ldr	r0, [r2, #0]
 8000bf4:	40d8      	lsrs	r0, r3
 8000bf6:	4770      	bx	lr
 8000bf8:	40021000 	.word	0x40021000
 8000bfc:	08001b74 	.word	0x08001b74
 8000c00:	20000008 	.word	0x20000008

08000c04 <HAL_RCCEx_PeriphCLKConfig>:
 8000c04:	e92d 41f0 	stmdb	sp!, {r4, r5, r6, r7, r8, lr}
 8000c08:	4604      	mov	r4, r0
 8000c0a:	6800      	ldr	r0, [r0, #0]
 8000c0c:	b082      	sub	sp, #8
 8000c0e:	07c5      	lsls	r5, r0, #31
 8000c10:	d52a      	bpl.n	8000c68 <HAL_RCCEx_PeriphCLKConfig+0x64>
 8000c12:	4b3a      	ldr	r3, [pc, #232]	; (8000cfc <HAL_RCCEx_PeriphCLKConfig+0xf8>)
 8000c14:	69da      	ldr	r2, [r3, #28]
 8000c16:	00d1      	lsls	r1, r2, #3
 8000c18:	d53d      	bpl.n	8000c96 <HAL_RCCEx_PeriphCLKConfig+0x92>
 8000c1a:	4b39      	ldr	r3, [pc, #228]	; (8000d00 <HAL_RCCEx_PeriphCLKConfig+0xfc>)
 8000c1c:	2500      	movs	r5, #0
 8000c1e:	681a      	ldr	r2, [r3, #0]
 8000c20:	05d2      	lsls	r2, r2, #23
 8000c22:	d546      	bpl.n	8000cb2 <HAL_RCCEx_PeriphCLKConfig+0xae>
 8000c24:	4935      	ldr	r1, [pc, #212]	; (8000cfc <HAL_RCCEx_PeriphCLKConfig+0xf8>)
 8000c26:	6860      	ldr	r0, [r4, #4]
 8000c28:	6a0a      	ldr	r2, [r1, #32]
 8000c2a:	f412 7240 	ands.w	r2, r2, #768	; 0x300
 8000c2e:	d00f      	beq.n	8000c50 <HAL_RCCEx_PeriphCLKConfig+0x4c>
 8000c30:	f400 7340 	and.w	r3, r0, #768	; 0x300
 8000c34:	4293      	cmp	r3, r2
 8000c36:	d00b      	beq.n	8000c50 <HAL_RCCEx_PeriphCLKConfig+0x4c>
 8000c38:	2701      	movs	r7, #1
 8000c3a:	2600      	movs	r6, #0
 8000c3c:	6a0b      	ldr	r3, [r1, #32]
 8000c3e:	4a31      	ldr	r2, [pc, #196]	; (8000d04 <HAL_RCCEx_PeriphCLKConfig+0x100>)
 8000c40:	f423 7040 	bic.w	r0, r3, #768	; 0x300
 8000c44:	6017      	str	r7, [r2, #0]
 8000c46:	6016      	str	r6, [r2, #0]
 8000c48:	6208      	str	r0, [r1, #32]
 8000c4a:	07d8      	lsls	r0, r3, #31
 8000c4c:	d445      	bmi.n	8000cda <HAL_RCCEx_PeriphCLKConfig+0xd6>
 8000c4e:	6860      	ldr	r0, [r4, #4]
 8000c50:	4a2a      	ldr	r2, [pc, #168]	; (8000cfc <HAL_RCCEx_PeriphCLKConfig+0xf8>)
 8000c52:	6a13      	ldr	r3, [r2, #32]
 8000c54:	f423 7340 	bic.w	r3, r3, #768	; 0x300
 8000c58:	4303      	orrs	r3, r0
 8000c5a:	6213      	str	r3, [r2, #32]
 8000c5c:	b11d      	cbz	r5, 8000c66 <HAL_RCCEx_PeriphCLKConfig+0x62>
 8000c5e:	69d3      	ldr	r3, [r2, #28]
 8000c60:	f023 5380 	bic.w	r3, r3, #268435456	; 0x10000000
 8000c64:	61d3      	str	r3, [r2, #28]
 8000c66:	6820      	ldr	r0, [r4, #0]
 8000c68:	0783      	lsls	r3, r0, #30
 8000c6a:	d506      	bpl.n	8000c7a <HAL_RCCEx_PeriphCLKConfig+0x76>
 8000c6c:	4a23      	ldr	r2, [pc, #140]	; (8000cfc <HAL_RCCEx_PeriphCLKConfig+0xf8>)
 8000c6e:	68a1      	ldr	r1, [r4, #8]
 8000c70:	6853      	ldr	r3, [r2, #4]
 8000c72:	f423 4340 	bic.w	r3, r3, #49152	; 0xc000
 8000c76:	430b      	orrs	r3, r1
 8000c78:	6053      	str	r3, [r2, #4]
 8000c7a:	f010 0010 	ands.w	r0, r0, #16
 8000c7e:	d007      	beq.n	8000c90 <HAL_RCCEx_PeriphCLKConfig+0x8c>
 8000c80:	2000      	movs	r0, #0
 8000c82:	4a1e      	ldr	r2, [pc, #120]	; (8000cfc <HAL_RCCEx_PeriphCLKConfig+0xf8>)
 8000c84:	68e1      	ldr	r1, [r4, #12]
 8000c86:	6853      	ldr	r3, [r2, #4]
 8000c88:	f423 0380 	bic.w	r3, r3, #4194304	; 0x400000
 8000c8c:	430b      	orrs	r3, r1
 8000c8e:	6053      	str	r3, [r2, #4]
 8000c90:	b002      	add	sp, #8
 8000c92:	e8bd 81f0 	ldmia.w	sp!, {r4, r5, r6, r7, r8, pc}
 8000c96:	69da      	ldr	r2, [r3, #28]
 8000c98:	2501      	movs	r5, #1
 8000c9a:	f042 5280 	orr.w	r2, r2, #268435456	; 0x10000000
 8000c9e:	61da      	str	r2, [r3, #28]
 8000ca0:	69db      	ldr	r3, [r3, #28]
 8000ca2:	f003 5380 	and.w	r3, r3, #268435456	; 0x10000000
 8000ca6:	9301      	str	r3, [sp, #4]
 8000ca8:	9b01      	ldr	r3, [sp, #4]
 8000caa:	4b15      	ldr	r3, [pc, #84]	; (8000d00 <HAL_RCCEx_PeriphCLKConfig+0xfc>)
 8000cac:	681a      	ldr	r2, [r3, #0]
 8000cae:	05d2      	lsls	r2, r2, #23
 8000cb0:	d4b8      	bmi.n	8000c24 <HAL_RCCEx_PeriphCLKConfig+0x20>
 8000cb2:	681a      	ldr	r2, [r3, #0]
 8000cb4:	461e      	mov	r6, r3
 8000cb6:	f442 7280 	orr.w	r2, r2, #256	; 0x100
 8000cba:	601a      	str	r2, [r3, #0]
 8000cbc:	f7ff fa88 	bl	80001d0 <HAL_GetTick>
 8000cc0:	4607      	mov	r7, r0
 8000cc2:	6833      	ldr	r3, [r6, #0]
 8000cc4:	05db      	lsls	r3, r3, #23
 8000cc6:	d4ad      	bmi.n	8000c24 <HAL_RCCEx_PeriphCLKConfig+0x20>
 8000cc8:	f7ff fa82 	bl	80001d0 <HAL_GetTick>
 8000ccc:	1bc0      	subs	r0, r0, r7
 8000cce:	2864      	cmp	r0, #100	; 0x64
 8000cd0:	d9f7      	bls.n	8000cc2 <HAL_RCCEx_PeriphCLKConfig+0xbe>
 8000cd2:	2003      	movs	r0, #3
 8000cd4:	b002      	add	sp, #8
 8000cd6:	e8bd 81f0 	ldmia.w	sp!, {r4, r5, r6, r7, r8, pc}
 8000cda:	460e      	mov	r6, r1
 8000cdc:	f7ff fa78 	bl	80001d0 <HAL_GetTick>
 8000ce0:	f241 3788 	movw	r7, #5000	; 0x1388
 8000ce4:	4680      	mov	r8, r0
 8000ce6:	6a33      	ldr	r3, [r6, #32]
 8000ce8:	079a      	lsls	r2, r3, #30
 8000cea:	d4b0      	bmi.n	8000c4e <HAL_RCCEx_PeriphCLKConfig+0x4a>
 8000cec:	f7ff fa70 	bl	80001d0 <HAL_GetTick>
 8000cf0:	eba0 0008 	sub.w	r0, r0, r8
 8000cf4:	42b8      	cmp	r0, r7
 8000cf6:	d9f6      	bls.n	8000ce6 <HAL_RCCEx_PeriphCLKConfig+0xe2>
 8000cf8:	e7eb      	b.n	8000cd2 <HAL_RCCEx_PeriphCLKConfig+0xce>
 8000cfa:	bf00      	nop
 8000cfc:	40021000 	.word	0x40021000
 8000d00:	40007000 	.word	0x40007000
 8000d04:	42420440 	.word	0x42420440

08000d08 <HAL_RCCEx_GetPeriphCLKFreq>:
 8000d08:	b510      	push	{r4, lr}
 8000d0a:	4604      	mov	r4, r0
 8000d0c:	f240 2201 	movw	r2, #513	; 0x201
 8000d10:	b086      	sub	sp, #24
 8000d12:	4b34      	ldr	r3, [pc, #208]	; (8000de4 <HAL_RCCEx_GetPeriphCLKFreq+0xdc>)
 8000d14:	f10d 0c18 	add.w	ip, sp, #24
 8000d18:	2c02      	cmp	r4, #2
 8000d1a:	f8ad 2004 	strh.w	r2, [sp, #4]
 8000d1e:	cb0f      	ldmia	r3, {r0, r1, r2, r3}
 8000d20:	e90c 000f 	stmdb	ip, {r0, r1, r2, r3}
 8000d24:	d042      	beq.n	8000dac <HAL_RCCEx_GetPeriphCLKFreq+0xa4>
 8000d26:	2c10      	cmp	r4, #16
 8000d28:	d01c      	beq.n	8000d64 <HAL_RCCEx_GetPeriphCLKFreq+0x5c>
 8000d2a:	2c01      	cmp	r4, #1
 8000d2c:	d002      	beq.n	8000d34 <HAL_RCCEx_GetPeriphCLKFreq+0x2c>
 8000d2e:	2000      	movs	r0, #0
 8000d30:	b006      	add	sp, #24
 8000d32:	bd10      	pop	{r4, pc}
 8000d34:	f240 3202 	movw	r2, #770	; 0x302
 8000d38:	492b      	ldr	r1, [pc, #172]	; (8000de8 <HAL_RCCEx_GetPeriphCLKFreq+0xe0>)
 8000d3a:	6a0b      	ldr	r3, [r1, #32]
 8000d3c:	401a      	ands	r2, r3
 8000d3e:	f5b2 7f81 	cmp.w	r2, #258	; 0x102
 8000d42:	d04b      	beq.n	8000ddc <HAL_RCCEx_GetPeriphCLKFreq+0xd4>
 8000d44:	f403 7340 	and.w	r3, r3, #768	; 0x300
 8000d48:	f5b3 7f00 	cmp.w	r3, #512	; 0x200
 8000d4c:	d03a      	beq.n	8000dc4 <HAL_RCCEx_GetPeriphCLKFreq+0xbc>
 8000d4e:	f5b3 7f40 	cmp.w	r3, #768	; 0x300
 8000d52:	d1ec      	bne.n	8000d2e <HAL_RCCEx_GetPeriphCLKFreq+0x26>
 8000d54:	680b      	ldr	r3, [r1, #0]
 8000d56:	f24f 4024 	movw	r0, #62500	; 0xf424
 8000d5a:	f413 3f00 	tst.w	r3, #131072	; 0x20000
 8000d5e:	bf08      	it	eq
 8000d60:	2000      	moveq	r0, #0
 8000d62:	e7e5      	b.n	8000d30 <HAL_RCCEx_GetPeriphCLKFreq+0x28>
 8000d64:	4b20      	ldr	r3, [pc, #128]	; (8000de8 <HAL_RCCEx_GetPeriphCLKFreq+0xe0>)
 8000d66:	6859      	ldr	r1, [r3, #4]
 8000d68:	6818      	ldr	r0, [r3, #0]
 8000d6a:	f010 7080 	ands.w	r0, r0, #16777216	; 0x1000000
 8000d6e:	d0df      	beq.n	8000d30 <HAL_RCCEx_GetPeriphCLKFreq+0x28>
 8000d70:	a806      	add	r0, sp, #24
 8000d72:	f3c1 4283 	ubfx	r2, r1, #18, #4
 8000d76:	4402      	add	r2, r0
 8000d78:	f812 0c10 	ldrb.w	r0, [r2, #-16]
 8000d7c:	03ca      	lsls	r2, r1, #15
 8000d7e:	d529      	bpl.n	8000dd4 <HAL_RCCEx_GetPeriphCLKFreq+0xcc>
 8000d80:	685b      	ldr	r3, [r3, #4]
 8000d82:	a906      	add	r1, sp, #24
 8000d84:	f3c3 4340 	ubfx	r3, r3, #17, #1
 8000d88:	440b      	add	r3, r1
 8000d8a:	4a18      	ldr	r2, [pc, #96]	; (8000dec <HAL_RCCEx_GetPeriphCLKFreq+0xe4>)
 8000d8c:	f813 3c14 	ldrb.w	r3, [r3, #-20]
 8000d90:	fbb2 f3f3 	udiv	r3, r2, r3
 8000d94:	fb00 f003 	mul.w	r0, r0, r3
 8000d98:	4b13      	ldr	r3, [pc, #76]	; (8000de8 <HAL_RCCEx_GetPeriphCLKFreq+0xe0>)
 8000d9a:	685b      	ldr	r3, [r3, #4]
 8000d9c:	025b      	lsls	r3, r3, #9
 8000d9e:	d4c7      	bmi.n	8000d30 <HAL_RCCEx_GetPeriphCLKFreq+0x28>
 8000da0:	4b13      	ldr	r3, [pc, #76]	; (8000df0 <HAL_RCCEx_GetPeriphCLKFreq+0xe8>)
 8000da2:	0040      	lsls	r0, r0, #1
 8000da4:	fba3 3000 	umull	r3, r0, r3, r0
 8000da8:	0840      	lsrs	r0, r0, #1
 8000daa:	e7c1      	b.n	8000d30 <HAL_RCCEx_GetPeriphCLKFreq+0x28>
 8000dac:	f7ff ff1a 	bl	8000be4 <HAL_RCC_GetPCLK2Freq>
 8000db0:	4b0d      	ldr	r3, [pc, #52]	; (8000de8 <HAL_RCCEx_GetPeriphCLKFreq+0xe0>)
 8000db2:	685b      	ldr	r3, [r3, #4]
 8000db4:	f3c3 3381 	ubfx	r3, r3, #14, #2
 8000db8:	3301      	adds	r3, #1
 8000dba:	005b      	lsls	r3, r3, #1
 8000dbc:	fbb0 f0f3 	udiv	r0, r0, r3
 8000dc0:	b006      	add	sp, #24
 8000dc2:	bd10      	pop	{r4, pc}
 8000dc4:	6a4b      	ldr	r3, [r1, #36]	; 0x24
 8000dc6:	f649 4040 	movw	r0, #40000	; 0x9c40
 8000dca:	f013 0f02 	tst.w	r3, #2
 8000dce:	bf08      	it	eq
 8000dd0:	2000      	moveq	r0, #0
 8000dd2:	e7ad      	b.n	8000d30 <HAL_RCCEx_GetPeriphCLKFreq+0x28>
 8000dd4:	4b07      	ldr	r3, [pc, #28]	; (8000df4 <HAL_RCCEx_GetPeriphCLKFreq+0xec>)
 8000dd6:	fb03 f000 	mul.w	r0, r3, r0
 8000dda:	e7dd      	b.n	8000d98 <HAL_RCCEx_GetPeriphCLKFreq+0x90>
 8000ddc:	f44f 4000 	mov.w	r0, #32768	; 0x8000
 8000de0:	e7a6      	b.n	8000d30 <HAL_RCCEx_GetPeriphCLKFreq+0x28>
 8000de2:	bf00      	nop
 8000de4:	08001b54 	.word	0x08001b54
 8000de8:	40021000 	.word	0x40021000
 8000dec:	007a1200 	.word	0x007a1200
 8000df0:	aaaaaaab 	.word	0xaaaaaaab
 8000df4:	003d0900 	.word	0x003d0900

08000df8 <HAL_RTC_Init>:
 8000df8:	2800      	cmp	r0, #0
 8000dfa:	d06e      	beq.n	8000eda <HAL_RTC_Init+0xe2>
 8000dfc:	b538      	push	{r3, r4, r5, lr}
 8000dfe:	7c43      	ldrb	r3, [r0, #17]
 8000e00:	4604      	mov	r4, r0
 8000e02:	f003 02ff 	and.w	r2, r3, #255	; 0xff
 8000e06:	2b00      	cmp	r3, #0
 8000e08:	d063      	beq.n	8000ed2 <HAL_RTC_Init+0xda>
 8000e0a:	2302      	movs	r3, #2
 8000e0c:	6822      	ldr	r2, [r4, #0]
 8000e0e:	7463      	strb	r3, [r4, #17]
 8000e10:	6853      	ldr	r3, [r2, #4]
 8000e12:	f023 0308 	bic.w	r3, r3, #8
 8000e16:	6053      	str	r3, [r2, #4]
 8000e18:	f7ff f9da 	bl	80001d0 <HAL_GetTick>
 8000e1c:	4605      	mov	r5, r0
 8000e1e:	e005      	b.n	8000e2c <HAL_RTC_Init+0x34>
 8000e20:	f7ff f9d6 	bl	80001d0 <HAL_GetTick>
 8000e24:	1b40      	subs	r0, r0, r5
 8000e26:	f5b0 7f7a 	cmp.w	r0, #1000	; 0x3e8
 8000e2a:	d84e      	bhi.n	8000eca <HAL_RTC_Init+0xd2>
 8000e2c:	6823      	ldr	r3, [r4, #0]
 8000e2e:	685b      	ldr	r3, [r3, #4]
 8000e30:	0718      	lsls	r0, r3, #28
 8000e32:	d5f5      	bpl.n	8000e20 <HAL_RTC_Init+0x28>
 8000e34:	f7ff f9cc 	bl	80001d0 <HAL_GetTick>
 8000e38:	4605      	mov	r5, r0
 8000e3a:	e005      	b.n	8000e48 <HAL_RTC_Init+0x50>
 8000e3c:	f7ff f9c8 	bl	80001d0 <HAL_GetTick>
 8000e40:	1b40      	subs	r0, r0, r5
 8000e42:	f5b0 7f7a 	cmp.w	r0, #1000	; 0x3e8
 8000e46:	d840      	bhi.n	8000eca <HAL_RTC_Init+0xd2>
 8000e48:	6823      	ldr	r3, [r4, #0]
 8000e4a:	685a      	ldr	r2, [r3, #4]
 8000e4c:	0691      	lsls	r1, r2, #26
 8000e4e:	d5f5      	bpl.n	8000e3c <HAL_RTC_Init+0x44>
 8000e50:	6859      	ldr	r1, [r3, #4]
 8000e52:	68a0      	ldr	r0, [r4, #8]
 8000e54:	f041 0110 	orr.w	r1, r1, #16
 8000e58:	6059      	str	r1, [r3, #4]
 8000e5a:	6859      	ldr	r1, [r3, #4]
 8000e5c:	f021 0107 	bic.w	r1, r1, #7
 8000e60:	6059      	str	r1, [r3, #4]
 8000e62:	b120      	cbz	r0, 8000e6e <HAL_RTC_Init+0x76>
 8000e64:	4922      	ldr	r1, [pc, #136]	; (8000ef0 <HAL_RTC_Init+0xf8>)
 8000e66:	6b0a      	ldr	r2, [r1, #48]	; 0x30
 8000e68:	f022 0201 	bic.w	r2, r2, #1
 8000e6c:	630a      	str	r2, [r1, #48]	; 0x30
 8000e6e:	4920      	ldr	r1, [pc, #128]	; (8000ef0 <HAL_RTC_Init+0xf8>)
 8000e70:	6aca      	ldr	r2, [r1, #44]	; 0x2c
 8000e72:	f422 7260 	bic.w	r2, r2, #896	; 0x380
 8000e76:	4302      	orrs	r2, r0
 8000e78:	62ca      	str	r2, [r1, #44]	; 0x2c
 8000e7a:	6860      	ldr	r0, [r4, #4]
 8000e7c:	1c42      	adds	r2, r0, #1
 8000e7e:	d02e      	beq.n	8000ede <HAL_RTC_Init+0xe6>
 8000e80:	6899      	ldr	r1, [r3, #8]
 8000e82:	b285      	uxth	r5, r0
 8000e84:	f021 010f 	bic.w	r1, r1, #15
 8000e88:	ea41 4110 	orr.w	r1, r1, r0, lsr #16
 8000e8c:	6099      	str	r1, [r3, #8]
 8000e8e:	68da      	ldr	r2, [r3, #12]
 8000e90:	0c12      	lsrs	r2, r2, #16
 8000e92:	0412      	lsls	r2, r2, #16
 8000e94:	432a      	orrs	r2, r5
 8000e96:	60da      	str	r2, [r3, #12]
 8000e98:	685a      	ldr	r2, [r3, #4]
 8000e9a:	f022 0210 	bic.w	r2, r2, #16
 8000e9e:	605a      	str	r2, [r3, #4]
 8000ea0:	f7ff f996 	bl	80001d0 <HAL_GetTick>
 8000ea4:	4605      	mov	r5, r0
 8000ea6:	e005      	b.n	8000eb4 <HAL_RTC_Init+0xbc>
 8000ea8:	f7ff f992 	bl	80001d0 <HAL_GetTick>
 8000eac:	1b40      	subs	r0, r0, r5
 8000eae:	f5b0 7f7a 	cmp.w	r0, #1000	; 0x3e8
 8000eb2:	d80a      	bhi.n	8000eca <HAL_RTC_Init+0xd2>
 8000eb4:	6823      	ldr	r3, [r4, #0]
 8000eb6:	685b      	ldr	r3, [r3, #4]
 8000eb8:	069b      	lsls	r3, r3, #26
 8000eba:	d5f5      	bpl.n	8000ea8 <HAL_RTC_Init+0xb0>
 8000ebc:	2301      	movs	r3, #1
 8000ebe:	2000      	movs	r0, #0
 8000ec0:	7363      	strb	r3, [r4, #13]
 8000ec2:	73e0      	strb	r0, [r4, #15]
 8000ec4:	73a3      	strb	r3, [r4, #14]
 8000ec6:	7463      	strb	r3, [r4, #17]
 8000ec8:	bd38      	pop	{r3, r4, r5, pc}
 8000eca:	2304      	movs	r3, #4
 8000ecc:	2001      	movs	r0, #1
 8000ece:	7463      	strb	r3, [r4, #17]
 8000ed0:	bd38      	pop	{r3, r4, r5, pc}
 8000ed2:	7402      	strb	r2, [r0, #16]
 8000ed4:	f000 fd1c 	bl	8001910 <HAL_RTC_MspInit>
 8000ed8:	e797      	b.n	8000e0a <HAL_RTC_Init+0x12>
 8000eda:	2001      	movs	r0, #1
 8000edc:	4770      	bx	lr
 8000ede:	2001      	movs	r0, #1
 8000ee0:	f7ff ff12 	bl	8000d08 <HAL_RCCEx_GetPeriphCLKFreq>
 8000ee4:	2800      	cmp	r0, #0
 8000ee6:	d0f0      	beq.n	8000eca <HAL_RTC_Init+0xd2>
 8000ee8:	6823      	ldr	r3, [r4, #0]
 8000eea:	3801      	subs	r0, #1
 8000eec:	e7c8      	b.n	8000e80 <HAL_RTC_Init+0x88>
 8000eee:	bf00      	nop
 8000ef0:	40006c00 	.word	0x40006c00

08000ef4 <HAL_TIM_Base_Init>:
 8000ef4:	2800      	cmp	r0, #0
 8000ef6:	d036      	beq.n	8000f66 <HAL_TIM_Base_Init+0x72>
 8000ef8:	f890 303d 	ldrb.w	r3, [r0, #61]	; 0x3d
 8000efc:	b570      	push	{r4, r5, r6, lr}
 8000efe:	f003 02ff 	and.w	r2, r3, #255	; 0xff
 8000f02:	4604      	mov	r4, r0
 8000f04:	b30b      	cbz	r3, 8000f4a <HAL_TIM_Base_Init+0x56>
 8000f06:	2302      	movs	r3, #2
 8000f08:	6822      	ldr	r2, [r4, #0]
 8000f0a:	4e20      	ldr	r6, [pc, #128]	; (8000f8c <HAL_TIM_Base_Init+0x98>)
 8000f0c:	f884 303d 	strb.w	r3, [r4, #61]	; 0x3d
 8000f10:	42b2      	cmp	r2, r6
 8000f12:	6813      	ldr	r3, [r2, #0]
 8000f14:	69a5      	ldr	r5, [r4, #24]
 8000f16:	68e0      	ldr	r0, [r4, #12]
 8000f18:	6861      	ldr	r1, [r4, #4]
 8000f1a:	d026      	beq.n	8000f6a <HAL_TIM_Base_Init+0x76>
 8000f1c:	f1b2 4f80 	cmp.w	r2, #1073741824	; 0x40000000
 8000f20:	d018      	beq.n	8000f54 <HAL_TIM_Base_Init+0x60>
 8000f22:	f5a6 3694 	sub.w	r6, r6, #75776	; 0x12800
 8000f26:	42b2      	cmp	r2, r6
 8000f28:	d014      	beq.n	8000f54 <HAL_TIM_Base_Init+0x60>
 8000f2a:	f506 6680 	add.w	r6, r6, #1024	; 0x400
 8000f2e:	42b2      	cmp	r2, r6
 8000f30:	d010      	beq.n	8000f54 <HAL_TIM_Base_Init+0x60>
 8000f32:	f023 0380 	bic.w	r3, r3, #128	; 0x80
 8000f36:	432b      	orrs	r3, r5
 8000f38:	6013      	str	r3, [r2, #0]
 8000f3a:	62d0      	str	r0, [r2, #44]	; 0x2c
 8000f3c:	6291      	str	r1, [r2, #40]	; 0x28
 8000f3e:	2301      	movs	r3, #1
 8000f40:	2000      	movs	r0, #0
 8000f42:	6153      	str	r3, [r2, #20]
 8000f44:	f884 303d 	strb.w	r3, [r4, #61]	; 0x3d
 8000f48:	bd70      	pop	{r4, r5, r6, pc}
 8000f4a:	f880 203c 	strb.w	r2, [r0, #60]	; 0x3c
 8000f4e:	f000 fcff 	bl	8001950 <HAL_TIM_Base_MspInit>
 8000f52:	e7d8      	b.n	8000f06 <HAL_TIM_Base_Init+0x12>
 8000f54:	68a6      	ldr	r6, [r4, #8]
 8000f56:	f023 0370 	bic.w	r3, r3, #112	; 0x70
 8000f5a:	4333      	orrs	r3, r6
 8000f5c:	6926      	ldr	r6, [r4, #16]
 8000f5e:	f423 7340 	bic.w	r3, r3, #768	; 0x300
 8000f62:	4333      	orrs	r3, r6
 8000f64:	e7e5      	b.n	8000f32 <HAL_TIM_Base_Init+0x3e>
 8000f66:	2001      	movs	r0, #1
 8000f68:	4770      	bx	lr
 8000f6a:	68a6      	ldr	r6, [r4, #8]
 8000f6c:	f023 0370 	bic.w	r3, r3, #112	; 0x70
 8000f70:	4333      	orrs	r3, r6
 8000f72:	6926      	ldr	r6, [r4, #16]
 8000f74:	f423 7340 	bic.w	r3, r3, #768	; 0x300
 8000f78:	4333      	orrs	r3, r6
 8000f7a:	f023 0380 	bic.w	r3, r3, #128	; 0x80
 8000f7e:	432b      	orrs	r3, r5
 8000f80:	6013      	str	r3, [r2, #0]
 8000f82:	62d0      	str	r0, [r2, #44]	; 0x2c
 8000f84:	6291      	str	r1, [r2, #40]	; 0x28
 8000f86:	6963      	ldr	r3, [r4, #20]
 8000f88:	6313      	str	r3, [r2, #48]	; 0x30
 8000f8a:	e7d8      	b.n	8000f3e <HAL_TIM_Base_Init+0x4a>
 8000f8c:	40012c00 	.word	0x40012c00

08000f90 <HAL_TIM_Base_Start_IT>:
 8000f90:	6803      	ldr	r3, [r0, #0]
 8000f92:	68da      	ldr	r2, [r3, #12]
 8000f94:	f042 0201 	orr.w	r2, r2, #1
 8000f98:	60da      	str	r2, [r3, #12]
 8000f9a:	689a      	ldr	r2, [r3, #8]
 8000f9c:	f002 0207 	and.w	r2, r2, #7
 8000fa0:	2a06      	cmp	r2, #6
 8000fa2:	d003      	beq.n	8000fac <HAL_TIM_Base_Start_IT+0x1c>
 8000fa4:	681a      	ldr	r2, [r3, #0]
 8000fa6:	f042 0201 	orr.w	r2, r2, #1
 8000faa:	601a      	str	r2, [r3, #0]
 8000fac:	2000      	movs	r0, #0
 8000fae:	4770      	bx	lr

08000fb0 <HAL_TIM_OC_MspInit>:
 8000fb0:	4770      	bx	lr
 8000fb2:	bf00      	nop

08000fb4 <HAL_TIM_OC_Init>:
 8000fb4:	2800      	cmp	r0, #0
 8000fb6:	d036      	beq.n	8001026 <HAL_TIM_OC_Init+0x72>
 8000fb8:	f890 303d 	ldrb.w	r3, [r0, #61]	; 0x3d
 8000fbc:	b570      	push	{r4, r5, r6, lr}
 8000fbe:	f003 02ff 	and.w	r2, r3, #255	; 0xff
 8000fc2:	4604      	mov	r4, r0
 8000fc4:	b30b      	cbz	r3, 800100a <HAL_TIM_OC_Init+0x56>
 8000fc6:	2302      	movs	r3, #2
 8000fc8:	6822      	ldr	r2, [r4, #0]
 8000fca:	4e20      	ldr	r6, [pc, #128]	; (800104c <HAL_TIM_OC_Init+0x98>)
 8000fcc:	f884 303d 	strb.w	r3, [r4, #61]	; 0x3d
 8000fd0:	42b2      	cmp	r2, r6
 8000fd2:	6813      	ldr	r3, [r2, #0]
 8000fd4:	69a5      	ldr	r5, [r4, #24]
 8000fd6:	68e0      	ldr	r0, [r4, #12]
 8000fd8:	6861      	ldr	r1, [r4, #4]
 8000fda:	d026      	beq.n	800102a <HAL_TIM_OC_Init+0x76>
 8000fdc:	f1b2 4f80 	cmp.w	r2, #1073741824	; 0x40000000
 8000fe0:	d018      	beq.n	8001014 <HAL_TIM_OC_Init+0x60>
 8000fe2:	f5a6 3694 	sub.w	r6, r6, #75776	; 0x12800
 8000fe6:	42b2      	cmp	r2, r6
 8000fe8:	d014      	beq.n	8001014 <HAL_TIM_OC_Init+0x60>
 8000fea:	f506 6680 	add.w	r6, r6, #1024	; 0x400
 8000fee:	42b2      	cmp	r2, r6
 8000ff0:	d010      	beq.n	8001014 <HAL_TIM_OC_Init+0x60>
 8000ff2:	f023 0380 	bic.w	r3, r3, #128	; 0x80
 8000ff6:	432b      	orrs	r3, r5
 8000ff8:	6013      	str	r3, [r2, #0]
 8000ffa:	62d0      	str	r0, [r2, #44]	; 0x2c
 8000ffc:	6291      	str	r1, [r2, #40]	; 0x28
 8000ffe:	2301      	movs	r3, #1
 8001000:	2000      	movs	r0, #0
 8001002:	6153      	str	r3, [r2, #20]
 8001004:	f884 303d 	strb.w	r3, [r4, #61]	; 0x3d
 8001008:	bd70      	pop	{r4, r5, r6, pc}
 800100a:	f880 203c 	strb.w	r2, [r0, #60]	; 0x3c
 800100e:	f7ff ffcf 	bl	8000fb0 <HAL_TIM_OC_MspInit>
 8001012:	e7d8      	b.n	8000fc6 <HAL_TIM_OC_Init+0x12>
 8001014:	68a6      	ldr	r6, [r4, #8]
 8001016:	f023 0370 	bic.w	r3, r3, #112	; 0x70
 800101a:	4333      	orrs	r3, r6
 800101c:	6926      	ldr	r6, [r4, #16]
 800101e:	f423 7340 	bic.w	r3, r3, #768	; 0x300
 8001022:	4333      	orrs	r3, r6
 8001024:	e7e5      	b.n	8000ff2 <HAL_TIM_OC_Init+0x3e>
 8001026:	2001      	movs	r0, #1
 8001028:	4770      	bx	lr
 800102a:	68a6      	ldr	r6, [r4, #8]
 800102c:	f023 0370 	bic.w	r3, r3, #112	; 0x70
 8001030:	4333      	orrs	r3, r6
 8001032:	6926      	ldr	r6, [r4, #16]
 8001034:	f423 7340 	bic.w	r3, r3, #768	; 0x300
 8001038:	4333      	orrs	r3, r6
 800103a:	f023 0380 	bic.w	r3, r3, #128	; 0x80
 800103e:	432b      	orrs	r3, r5
 8001040:	6013      	str	r3, [r2, #0]
 8001042:	62d0      	str	r0, [r2, #44]	; 0x2c
 8001044:	6291      	str	r1, [r2, #40]	; 0x28
 8001046:	6963      	ldr	r3, [r4, #20]
 8001048:	6313      	str	r3, [r2, #48]	; 0x30
 800104a:	e7d8      	b.n	8000ffe <HAL_TIM_OC_Init+0x4a>
 800104c:	40012c00 	.word	0x40012c00

08001050 <HAL_TIM_OC_ConfigChannel>:
 8001050:	f890 303c 	ldrb.w	r3, [r0, #60]	; 0x3c
 8001054:	2b01      	cmp	r3, #1
 8001056:	f000 8093 	beq.w	8001180 <HAL_TIM_OC_ConfigChannel+0x130>
 800105a:	b4f0      	push	{r4, r5, r6, r7}
 800105c:	2302      	movs	r3, #2
 800105e:	2401      	movs	r4, #1
 8001060:	f880 303d 	strb.w	r3, [r0, #61]	; 0x3d
 8001064:	f880 403c 	strb.w	r4, [r0, #60]	; 0x3c
 8001068:	2a0c      	cmp	r2, #12
 800106a:	d829      	bhi.n	80010c0 <HAL_TIM_OC_ConfigChannel+0x70>
 800106c:	e8df f002 	tbb	[pc, r2]
 8001070:	28282831 	.word	0x28282831
 8001074:	2828284e 	.word	0x2828284e
 8001078:	2828286b 	.word	0x2828286b
 800107c:	07          	.byte	0x07
 800107d:	00          	.byte	0x00
 800107e:	6803      	ldr	r3, [r0, #0]
 8001080:	688f      	ldr	r7, [r1, #8]
 8001082:	6a1d      	ldr	r5, [r3, #32]
 8001084:	680e      	ldr	r6, [r1, #0]
 8001086:	f425 5580 	bic.w	r5, r5, #4096	; 0x1000
 800108a:	621d      	str	r5, [r3, #32]
 800108c:	6a1a      	ldr	r2, [r3, #32]
 800108e:	4d53      	ldr	r5, [pc, #332]	; (80011dc <HAL_TIM_OC_ConfigChannel+0x18c>)
 8001090:	f8d3 c004 	ldr.w	ip, [r3, #4]
 8001094:	69dc      	ldr	r4, [r3, #28]
 8001096:	f422 5200 	bic.w	r2, r2, #8192	; 0x2000
 800109a:	f424 44e6 	bic.w	r4, r4, #29440	; 0x7300
 800109e:	42ab      	cmp	r3, r5
 80010a0:	ea42 3207 	orr.w	r2, r2, r7, lsl #12
 80010a4:	ea44 2406 	orr.w	r4, r4, r6, lsl #8
 80010a8:	d104      	bne.n	80010b4 <HAL_TIM_OC_ConfigChannel+0x64>
 80010aa:	694d      	ldr	r5, [r1, #20]
 80010ac:	f42c 4c80 	bic.w	ip, ip, #16384	; 0x4000
 80010b0:	ea4c 1c85 	orr.w	ip, ip, r5, lsl #6
 80010b4:	6849      	ldr	r1, [r1, #4]
 80010b6:	f8c3 c004 	str.w	ip, [r3, #4]
 80010ba:	61dc      	str	r4, [r3, #28]
 80010bc:	6419      	str	r1, [r3, #64]	; 0x40
 80010be:	621a      	str	r2, [r3, #32]
 80010c0:	2300      	movs	r3, #0
 80010c2:	bcf0      	pop	{r4, r5, r6, r7}
 80010c4:	2201      	movs	r2, #1
 80010c6:	f880 303c 	strb.w	r3, [r0, #60]	; 0x3c
 80010ca:	f880 203d 	strb.w	r2, [r0, #61]	; 0x3d
 80010ce:	4618      	mov	r0, r3
 80010d0:	4770      	bx	lr
 80010d2:	6803      	ldr	r3, [r0, #0]
 80010d4:	688f      	ldr	r7, [r1, #8]
 80010d6:	6a1d      	ldr	r5, [r3, #32]
 80010d8:	680e      	ldr	r6, [r1, #0]
 80010da:	f025 0501 	bic.w	r5, r5, #1
 80010de:	621d      	str	r5, [r3, #32]
 80010e0:	6a1a      	ldr	r2, [r3, #32]
 80010e2:	4d3e      	ldr	r5, [pc, #248]	; (80011dc <HAL_TIM_OC_ConfigChannel+0x18c>)
 80010e4:	f8d3 c004 	ldr.w	ip, [r3, #4]
 80010e8:	699c      	ldr	r4, [r3, #24]
 80010ea:	f022 0202 	bic.w	r2, r2, #2
 80010ee:	f024 0473 	bic.w	r4, r4, #115	; 0x73
 80010f2:	42ab      	cmp	r3, r5
 80010f4:	ea42 0207 	orr.w	r2, r2, r7
 80010f8:	ea44 0406 	orr.w	r4, r4, r6
 80010fc:	d051      	beq.n	80011a2 <HAL_TIM_OC_ConfigChannel+0x152>
 80010fe:	6849      	ldr	r1, [r1, #4]
 8001100:	f8c3 c004 	str.w	ip, [r3, #4]
 8001104:	619c      	str	r4, [r3, #24]
 8001106:	6359      	str	r1, [r3, #52]	; 0x34
 8001108:	621a      	str	r2, [r3, #32]
 800110a:	e7d9      	b.n	80010c0 <HAL_TIM_OC_ConfigChannel+0x70>
 800110c:	6803      	ldr	r3, [r0, #0]
 800110e:	688f      	ldr	r7, [r1, #8]
 8001110:	6a1d      	ldr	r5, [r3, #32]
 8001112:	680e      	ldr	r6, [r1, #0]
 8001114:	f025 0510 	bic.w	r5, r5, #16
 8001118:	621d      	str	r5, [r3, #32]
 800111a:	6a1a      	ldr	r2, [r3, #32]
 800111c:	4d2f      	ldr	r5, [pc, #188]	; (80011dc <HAL_TIM_OC_ConfigChannel+0x18c>)
 800111e:	f8d3 c004 	ldr.w	ip, [r3, #4]
 8001122:	699c      	ldr	r4, [r3, #24]
 8001124:	f022 0220 	bic.w	r2, r2, #32
 8001128:	f424 44e6 	bic.w	r4, r4, #29440	; 0x7300
 800112c:	42ab      	cmp	r3, r5
 800112e:	ea42 1207 	orr.w	r2, r2, r7, lsl #4
 8001132:	ea44 2406 	orr.w	r4, r4, r6, lsl #8
 8001136:	d042      	beq.n	80011be <HAL_TIM_OC_ConfigChannel+0x16e>
 8001138:	6849      	ldr	r1, [r1, #4]
 800113a:	f8c3 c004 	str.w	ip, [r3, #4]
 800113e:	619c      	str	r4, [r3, #24]
 8001140:	6399      	str	r1, [r3, #56]	; 0x38
 8001142:	621a      	str	r2, [r3, #32]
 8001144:	e7bc      	b.n	80010c0 <HAL_TIM_OC_ConfigChannel+0x70>
 8001146:	6803      	ldr	r3, [r0, #0]
 8001148:	688f      	ldr	r7, [r1, #8]
 800114a:	6a1d      	ldr	r5, [r3, #32]
 800114c:	680e      	ldr	r6, [r1, #0]
 800114e:	f425 7580 	bic.w	r5, r5, #256	; 0x100
 8001152:	621d      	str	r5, [r3, #32]
 8001154:	6a1a      	ldr	r2, [r3, #32]
 8001156:	4d21      	ldr	r5, [pc, #132]	; (80011dc <HAL_TIM_OC_ConfigChannel+0x18c>)
 8001158:	f8d3 c004 	ldr.w	ip, [r3, #4]
 800115c:	69dc      	ldr	r4, [r3, #28]
 800115e:	f422 7200 	bic.w	r2, r2, #512	; 0x200
 8001162:	f024 0473 	bic.w	r4, r4, #115	; 0x73
 8001166:	42ab      	cmp	r3, r5
 8001168:	ea42 2207 	orr.w	r2, r2, r7, lsl #8
 800116c:	ea44 0406 	orr.w	r4, r4, r6
 8001170:	d008      	beq.n	8001184 <HAL_TIM_OC_ConfigChannel+0x134>
 8001172:	6849      	ldr	r1, [r1, #4]
 8001174:	f8c3 c004 	str.w	ip, [r3, #4]
 8001178:	61dc      	str	r4, [r3, #28]
 800117a:	63d9      	str	r1, [r3, #60]	; 0x3c
 800117c:	621a      	str	r2, [r3, #32]
 800117e:	e79f      	b.n	80010c0 <HAL_TIM_OC_ConfigChannel+0x70>
 8001180:	2002      	movs	r0, #2
 8001182:	4770      	bx	lr
 8001184:	68ce      	ldr	r6, [r1, #12]
 8001186:	f422 6200 	bic.w	r2, r2, #2048	; 0x800
 800118a:	e9d1 7505 	ldrd	r7, r5, [r1, #20]
 800118e:	f42c 5c40 	bic.w	ip, ip, #12288	; 0x3000
 8001192:	ea42 2206 	orr.w	r2, r2, r6, lsl #8
 8001196:	433d      	orrs	r5, r7
 8001198:	f422 6280 	bic.w	r2, r2, #1024	; 0x400
 800119c:	ea4c 1c05 	orr.w	ip, ip, r5, lsl #4
 80011a0:	e7e7      	b.n	8001172 <HAL_TIM_OC_ConfigChannel+0x122>
 80011a2:	68cf      	ldr	r7, [r1, #12]
 80011a4:	f022 0208 	bic.w	r2, r2, #8
 80011a8:	e9d1 5605 	ldrd	r5, r6, [r1, #20]
 80011ac:	f42c 7c40 	bic.w	ip, ip, #768	; 0x300
 80011b0:	433a      	orrs	r2, r7
 80011b2:	4335      	orrs	r5, r6
 80011b4:	f022 0204 	bic.w	r2, r2, #4
 80011b8:	ea45 0c0c 	orr.w	ip, r5, ip
 80011bc:	e79f      	b.n	80010fe <HAL_TIM_OC_ConfigChannel+0xae>
 80011be:	68ce      	ldr	r6, [r1, #12]
 80011c0:	f022 0280 	bic.w	r2, r2, #128	; 0x80
 80011c4:	e9d1 7505 	ldrd	r7, r5, [r1, #20]
 80011c8:	f42c 6c40 	bic.w	ip, ip, #3072	; 0xc00
 80011cc:	ea42 1206 	orr.w	r2, r2, r6, lsl #4
 80011d0:	433d      	orrs	r5, r7
 80011d2:	f022 0240 	bic.w	r2, r2, #64	; 0x40
 80011d6:	ea4c 0c85 	orr.w	ip, ip, r5, lsl #2
 80011da:	e7ad      	b.n	8001138 <HAL_TIM_OC_ConfigChannel+0xe8>
 80011dc:	40012c00 	.word	0x40012c00

080011e0 <HAL_TIM_ConfigClockSource>:
 80011e0:	f890 303c 	ldrb.w	r3, [r0, #60]	; 0x3c
 80011e4:	2b01      	cmp	r3, #1
 80011e6:	d05a      	beq.n	800129e <HAL_TIM_ConfigClockSource+0xbe>
 80011e8:	2202      	movs	r2, #2
 80011ea:	b4f0      	push	{r4, r5, r6, r7}
 80011ec:	2501      	movs	r5, #1
 80011ee:	6803      	ldr	r3, [r0, #0]
 80011f0:	f880 203d 	strb.w	r2, [r0, #61]	; 0x3d
 80011f4:	689a      	ldr	r2, [r3, #8]
 80011f6:	680c      	ldr	r4, [r1, #0]
 80011f8:	f422 427f 	bic.w	r2, r2, #65280	; 0xff00
 80011fc:	f022 0277 	bic.w	r2, r2, #119	; 0x77
 8001200:	2c40      	cmp	r4, #64	; 0x40
 8001202:	f880 503c 	strb.w	r5, [r0, #60]	; 0x3c
 8001206:	609a      	str	r2, [r3, #8]
 8001208:	d074      	beq.n	80012f4 <HAL_TIM_ConfigClockSource+0x114>
 800120a:	d94a      	bls.n	80012a2 <HAL_TIM_ConfigClockSource+0xc2>
 800120c:	2c60      	cmp	r4, #96	; 0x60
 800120e:	d02d      	beq.n	800126c <HAL_TIM_ConfigClockSource+0x8c>
 8001210:	d956      	bls.n	80012c0 <HAL_TIM_ConfigClockSource+0xe0>
 8001212:	2c70      	cmp	r4, #112	; 0x70
 8001214:	d01a      	beq.n	800124c <HAL_TIM_ConfigClockSource+0x6c>
 8001216:	f5b4 5f00 	cmp.w	r4, #8192	; 0x2000
 800121a:	d10e      	bne.n	800123a <HAL_TIM_ConfigClockSource+0x5a>
 800121c:	e9d1 5201 	ldrd	r5, r2, [r1, #4]
 8001220:	68cc      	ldr	r4, [r1, #12]
 8001222:	6899      	ldr	r1, [r3, #8]
 8001224:	432a      	orrs	r2, r5
 8001226:	ea42 2204 	orr.w	r2, r2, r4, lsl #8
 800122a:	f421 417f 	bic.w	r1, r1, #65280	; 0xff00
 800122e:	430a      	orrs	r2, r1
 8001230:	609a      	str	r2, [r3, #8]
 8001232:	689a      	ldr	r2, [r3, #8]
 8001234:	f442 4280 	orr.w	r2, r2, #16384	; 0x4000
 8001238:	609a      	str	r2, [r3, #8]
 800123a:	2300      	movs	r3, #0
 800123c:	bcf0      	pop	{r4, r5, r6, r7}
 800123e:	2201      	movs	r2, #1
 8001240:	f880 303c 	strb.w	r3, [r0, #60]	; 0x3c
 8001244:	f880 203d 	strb.w	r2, [r0, #61]	; 0x3d
 8001248:	4618      	mov	r0, r3
 800124a:	4770      	bx	lr
 800124c:	e9d1 5201 	ldrd	r5, r2, [r1, #4]
 8001250:	68cc      	ldr	r4, [r1, #12]
 8001252:	6899      	ldr	r1, [r3, #8]
 8001254:	432a      	orrs	r2, r5
 8001256:	ea42 2204 	orr.w	r2, r2, r4, lsl #8
 800125a:	f421 417f 	bic.w	r1, r1, #65280	; 0xff00
 800125e:	430a      	orrs	r2, r1
 8001260:	609a      	str	r2, [r3, #8]
 8001262:	689a      	ldr	r2, [r3, #8]
 8001264:	f042 0277 	orr.w	r2, r2, #119	; 0x77
 8001268:	609a      	str	r2, [r3, #8]
 800126a:	e7e6      	b.n	800123a <HAL_TIM_ConfigClockSource+0x5a>
 800126c:	6a1c      	ldr	r4, [r3, #32]
 800126e:	684d      	ldr	r5, [r1, #4]
 8001270:	f024 0410 	bic.w	r4, r4, #16
 8001274:	68ce      	ldr	r6, [r1, #12]
 8001276:	621c      	str	r4, [r3, #32]
 8001278:	6999      	ldr	r1, [r3, #24]
 800127a:	6a1a      	ldr	r2, [r3, #32]
 800127c:	f421 4170 	bic.w	r1, r1, #61440	; 0xf000
 8001280:	f022 02a0 	bic.w	r2, r2, #160	; 0xa0
 8001284:	ea42 1205 	orr.w	r2, r2, r5, lsl #4
 8001288:	ea41 3106 	orr.w	r1, r1, r6, lsl #12
 800128c:	6199      	str	r1, [r3, #24]
 800128e:	621a      	str	r2, [r3, #32]
 8001290:	689a      	ldr	r2, [r3, #8]
 8001292:	f022 0270 	bic.w	r2, r2, #112	; 0x70
 8001296:	f042 0267 	orr.w	r2, r2, #103	; 0x67
 800129a:	609a      	str	r2, [r3, #8]
 800129c:	e7cd      	b.n	800123a <HAL_TIM_ConfigClockSource+0x5a>
 800129e:	2002      	movs	r0, #2
 80012a0:	4770      	bx	lr
 80012a2:	2c10      	cmp	r4, #16
 80012a4:	d004      	beq.n	80012b0 <HAL_TIM_ConfigClockSource+0xd0>
 80012a6:	d93d      	bls.n	8001324 <HAL_TIM_ConfigClockSource+0x144>
 80012a8:	2c20      	cmp	r4, #32
 80012aa:	d001      	beq.n	80012b0 <HAL_TIM_ConfigClockSource+0xd0>
 80012ac:	2c30      	cmp	r4, #48	; 0x30
 80012ae:	d1c4      	bne.n	800123a <HAL_TIM_ConfigClockSource+0x5a>
 80012b0:	689a      	ldr	r2, [r3, #8]
 80012b2:	f044 0407 	orr.w	r4, r4, #7
 80012b6:	f022 0270 	bic.w	r2, r2, #112	; 0x70
 80012ba:	4314      	orrs	r4, r2
 80012bc:	609c      	str	r4, [r3, #8]
 80012be:	e7bc      	b.n	800123a <HAL_TIM_ConfigClockSource+0x5a>
 80012c0:	2c50      	cmp	r4, #80	; 0x50
 80012c2:	d1ba      	bne.n	800123a <HAL_TIM_ConfigClockSource+0x5a>
 80012c4:	6a1d      	ldr	r5, [r3, #32]
 80012c6:	6a1e      	ldr	r6, [r3, #32]
 80012c8:	684c      	ldr	r4, [r1, #4]
 80012ca:	f026 0601 	bic.w	r6, r6, #1
 80012ce:	68cf      	ldr	r7, [r1, #12]
 80012d0:	621e      	str	r6, [r3, #32]
 80012d2:	699a      	ldr	r2, [r3, #24]
 80012d4:	f025 010a 	bic.w	r1, r5, #10
 80012d8:	f022 02f0 	bic.w	r2, r2, #240	; 0xf0
 80012dc:	ea42 1207 	orr.w	r2, r2, r7, lsl #4
 80012e0:	4321      	orrs	r1, r4
 80012e2:	619a      	str	r2, [r3, #24]
 80012e4:	6219      	str	r1, [r3, #32]
 80012e6:	689a      	ldr	r2, [r3, #8]
 80012e8:	f022 0270 	bic.w	r2, r2, #112	; 0x70
 80012ec:	f042 0257 	orr.w	r2, r2, #87	; 0x57
 80012f0:	609a      	str	r2, [r3, #8]
 80012f2:	e7a2      	b.n	800123a <HAL_TIM_ConfigClockSource+0x5a>
 80012f4:	6a1d      	ldr	r5, [r3, #32]
 80012f6:	6a1e      	ldr	r6, [r3, #32]
 80012f8:	684c      	ldr	r4, [r1, #4]
 80012fa:	f026 0601 	bic.w	r6, r6, #1
 80012fe:	68cf      	ldr	r7, [r1, #12]
 8001300:	621e      	str	r6, [r3, #32]
 8001302:	699a      	ldr	r2, [r3, #24]
 8001304:	f025 010a 	bic.w	r1, r5, #10
 8001308:	f022 02f0 	bic.w	r2, r2, #240	; 0xf0
 800130c:	ea42 1207 	orr.w	r2, r2, r7, lsl #4
 8001310:	4321      	orrs	r1, r4
 8001312:	619a      	str	r2, [r3, #24]
 8001314:	6219      	str	r1, [r3, #32]
 8001316:	689a      	ldr	r2, [r3, #8]
 8001318:	f022 0270 	bic.w	r2, r2, #112	; 0x70
 800131c:	f042 0247 	orr.w	r2, r2, #71	; 0x47
 8001320:	609a      	str	r2, [r3, #8]
 8001322:	e78a      	b.n	800123a <HAL_TIM_ConfigClockSource+0x5a>
 8001324:	2c00      	cmp	r4, #0
 8001326:	d0c3      	beq.n	80012b0 <HAL_TIM_ConfigClockSource+0xd0>
 8001328:	e787      	b.n	800123a <HAL_TIM_ConfigClockSource+0x5a>
 800132a:	bf00      	nop

0800132c <HAL_TIM_OC_DelayElapsedCallback>:
 800132c:	4770      	bx	lr
 800132e:	bf00      	nop

08001330 <HAL_TIM_IC_CaptureCallback>:
 8001330:	4770      	bx	lr
 8001332:	bf00      	nop

08001334 <HAL_TIM_PWM_PulseFinishedCallback>:
 8001334:	4770      	bx	lr
 8001336:	bf00      	nop

08001338 <HAL_TIM_TriggerCallback>:
 8001338:	4770      	bx	lr
 800133a:	bf00      	nop

0800133c <HAL_TIM_IRQHandler>:
 800133c:	6803      	ldr	r3, [r0, #0]
 800133e:	b510      	push	{r4, lr}
 8001340:	691a      	ldr	r2, [r3, #16]
 8001342:	4604      	mov	r4, r0
 8001344:	0791      	lsls	r1, r2, #30
 8001346:	d502      	bpl.n	800134e <HAL_TIM_IRQHandler+0x12>
 8001348:	68da      	ldr	r2, [r3, #12]
 800134a:	0792      	lsls	r2, r2, #30
 800134c:	d45f      	bmi.n	800140e <HAL_TIM_IRQHandler+0xd2>
 800134e:	691a      	ldr	r2, [r3, #16]
 8001350:	0750      	lsls	r0, r2, #29
 8001352:	d502      	bpl.n	800135a <HAL_TIM_IRQHandler+0x1e>
 8001354:	68da      	ldr	r2, [r3, #12]
 8001356:	0751      	lsls	r1, r2, #29
 8001358:	d446      	bmi.n	80013e8 <HAL_TIM_IRQHandler+0xac>
 800135a:	691a      	ldr	r2, [r3, #16]
 800135c:	0712      	lsls	r2, r2, #28
 800135e:	d502      	bpl.n	8001366 <HAL_TIM_IRQHandler+0x2a>
 8001360:	68da      	ldr	r2, [r3, #12]
 8001362:	0710      	lsls	r0, r2, #28
 8001364:	d42e      	bmi.n	80013c4 <HAL_TIM_IRQHandler+0x88>
 8001366:	691a      	ldr	r2, [r3, #16]
 8001368:	06d2      	lsls	r2, r2, #27
 800136a:	d502      	bpl.n	8001372 <HAL_TIM_IRQHandler+0x36>
 800136c:	68da      	ldr	r2, [r3, #12]
 800136e:	06d0      	lsls	r0, r2, #27
 8001370:	d418      	bmi.n	80013a4 <HAL_TIM_IRQHandler+0x68>
 8001372:	691a      	ldr	r2, [r3, #16]
 8001374:	07d1      	lsls	r1, r2, #31
 8001376:	d502      	bpl.n	800137e <HAL_TIM_IRQHandler+0x42>
 8001378:	68da      	ldr	r2, [r3, #12]
 800137a:	07d2      	lsls	r2, r2, #31
 800137c:	d45d      	bmi.n	800143a <HAL_TIM_IRQHandler+0xfe>
 800137e:	691a      	ldr	r2, [r3, #16]
 8001380:	0610      	lsls	r0, r2, #24
 8001382:	d502      	bpl.n	800138a <HAL_TIM_IRQHandler+0x4e>
 8001384:	68da      	ldr	r2, [r3, #12]
 8001386:	0611      	lsls	r1, r2, #24
 8001388:	d45f      	bmi.n	800144a <HAL_TIM_IRQHandler+0x10e>
 800138a:	691a      	ldr	r2, [r3, #16]
 800138c:	0652      	lsls	r2, r2, #25
 800138e:	d502      	bpl.n	8001396 <HAL_TIM_IRQHandler+0x5a>
 8001390:	68da      	ldr	r2, [r3, #12]
 8001392:	0650      	lsls	r0, r2, #25
 8001394:	d461      	bmi.n	800145a <HAL_TIM_IRQHandler+0x11e>
 8001396:	691a      	ldr	r2, [r3, #16]
 8001398:	0691      	lsls	r1, r2, #26
 800139a:	d502      	bpl.n	80013a2 <HAL_TIM_IRQHandler+0x66>
 800139c:	68da      	ldr	r2, [r3, #12]
 800139e:	0692      	lsls	r2, r2, #26
 80013a0:	d443      	bmi.n	800142a <HAL_TIM_IRQHandler+0xee>
 80013a2:	bd10      	pop	{r4, pc}
 80013a4:	f06f 0110 	mvn.w	r1, #16
 80013a8:	2208      	movs	r2, #8
 80013aa:	6119      	str	r1, [r3, #16]
 80013ac:	69db      	ldr	r3, [r3, #28]
 80013ae:	4620      	mov	r0, r4
 80013b0:	f413 7f40 	tst.w	r3, #768	; 0x300
 80013b4:	7722      	strb	r2, [r4, #28]
 80013b6:	d064      	beq.n	8001482 <HAL_TIM_IRQHandler+0x146>
 80013b8:	f7ff ffba 	bl	8001330 <HAL_TIM_IC_CaptureCallback>
 80013bc:	2200      	movs	r2, #0
 80013be:	6823      	ldr	r3, [r4, #0]
 80013c0:	7722      	strb	r2, [r4, #28]
 80013c2:	e7d6      	b.n	8001372 <HAL_TIM_IRQHandler+0x36>
 80013c4:	f06f 0108 	mvn.w	r1, #8
 80013c8:	2204      	movs	r2, #4
 80013ca:	6119      	str	r1, [r3, #16]
 80013cc:	69db      	ldr	r3, [r3, #28]
 80013ce:	4620      	mov	r0, r4
 80013d0:	0799      	lsls	r1, r3, #30
 80013d2:	7722      	strb	r2, [r4, #28]
 80013d4:	d152      	bne.n	800147c <HAL_TIM_IRQHandler+0x140>
 80013d6:	f7ff ffa9 	bl	800132c <HAL_TIM_OC_DelayElapsedCallback>
 80013da:	4620      	mov	r0, r4
 80013dc:	f7ff ffaa 	bl	8001334 <HAL_TIM_PWM_PulseFinishedCallback>
 80013e0:	2200      	movs	r2, #0
 80013e2:	6823      	ldr	r3, [r4, #0]
 80013e4:	7722      	strb	r2, [r4, #28]
 80013e6:	e7be      	b.n	8001366 <HAL_TIM_IRQHandler+0x2a>
 80013e8:	f06f 0104 	mvn.w	r1, #4
 80013ec:	2202      	movs	r2, #2
 80013ee:	6119      	str	r1, [r3, #16]
 80013f0:	699b      	ldr	r3, [r3, #24]
 80013f2:	4620      	mov	r0, r4
 80013f4:	f413 7f40 	tst.w	r3, #768	; 0x300
 80013f8:	7722      	strb	r2, [r4, #28]
 80013fa:	d13c      	bne.n	8001476 <HAL_TIM_IRQHandler+0x13a>
 80013fc:	f7ff ff96 	bl	800132c <HAL_TIM_OC_DelayElapsedCallback>
 8001400:	4620      	mov	r0, r4
 8001402:	f7ff ff97 	bl	8001334 <HAL_TIM_PWM_PulseFinishedCallback>
 8001406:	2200      	movs	r2, #0
 8001408:	6823      	ldr	r3, [r4, #0]
 800140a:	7722      	strb	r2, [r4, #28]
 800140c:	e7a5      	b.n	800135a <HAL_TIM_IRQHandler+0x1e>
 800140e:	f06f 0102 	mvn.w	r1, #2
 8001412:	2201      	movs	r2, #1
 8001414:	6119      	str	r1, [r3, #16]
 8001416:	699b      	ldr	r3, [r3, #24]
 8001418:	7702      	strb	r2, [r0, #28]
 800141a:	079b      	lsls	r3, r3, #30
 800141c:	d025      	beq.n	800146a <HAL_TIM_IRQHandler+0x12e>
 800141e:	f7ff ff87 	bl	8001330 <HAL_TIM_IC_CaptureCallback>
 8001422:	2200      	movs	r2, #0
 8001424:	6823      	ldr	r3, [r4, #0]
 8001426:	7722      	strb	r2, [r4, #28]
 8001428:	e791      	b.n	800134e <HAL_TIM_IRQHandler+0x12>
 800142a:	f06f 0220 	mvn.w	r2, #32
 800142e:	4620      	mov	r0, r4
 8001430:	e8bd 4010 	ldmia.w	sp!, {r4, lr}
 8001434:	611a      	str	r2, [r3, #16]
 8001436:	f000 b84d 	b.w	80014d4 <HAL_TIMEx_CommutCallback>
 800143a:	f06f 0201 	mvn.w	r2, #1
 800143e:	4620      	mov	r0, r4
 8001440:	611a      	str	r2, [r3, #16]
 8001442:	f000 f8b5 	bl	80015b0 <HAL_TIM_PeriodElapsedCallback>
 8001446:	6823      	ldr	r3, [r4, #0]
 8001448:	e799      	b.n	800137e <HAL_TIM_IRQHandler+0x42>
 800144a:	f06f 0280 	mvn.w	r2, #128	; 0x80
 800144e:	4620      	mov	r0, r4
 8001450:	611a      	str	r2, [r3, #16]
 8001452:	f000 f841 	bl	80014d8 <HAL_TIMEx_BreakCallback>
 8001456:	6823      	ldr	r3, [r4, #0]
 8001458:	e797      	b.n	800138a <HAL_TIM_IRQHandler+0x4e>
 800145a:	f06f 0240 	mvn.w	r2, #64	; 0x40
 800145e:	4620      	mov	r0, r4
 8001460:	611a      	str	r2, [r3, #16]
 8001462:	f7ff ff69 	bl	8001338 <HAL_TIM_TriggerCallback>
 8001466:	6823      	ldr	r3, [r4, #0]
 8001468:	e795      	b.n	8001396 <HAL_TIM_IRQHandler+0x5a>
 800146a:	f7ff ff5f 	bl	800132c <HAL_TIM_OC_DelayElapsedCallback>
 800146e:	4620      	mov	r0, r4
 8001470:	f7ff ff60 	bl	8001334 <HAL_TIM_PWM_PulseFinishedCallback>
 8001474:	e7d5      	b.n	8001422 <HAL_TIM_IRQHandler+0xe6>
 8001476:	f7ff ff5b 	bl	8001330 <HAL_TIM_IC_CaptureCallback>
 800147a:	e7c4      	b.n	8001406 <HAL_TIM_IRQHandler+0xca>
 800147c:	f7ff ff58 	bl	8001330 <HAL_TIM_IC_CaptureCallback>
 8001480:	e7ae      	b.n	80013e0 <HAL_TIM_IRQHandler+0xa4>
 8001482:	f7ff ff53 	bl	800132c <HAL_TIM_OC_DelayElapsedCallback>
 8001486:	4620      	mov	r0, r4
 8001488:	f7ff ff54 	bl	8001334 <HAL_TIM_PWM_PulseFinishedCallback>
 800148c:	e796      	b.n	80013bc <HAL_TIM_IRQHandler+0x80>
 800148e:	bf00      	nop

08001490 <HAL_TIMEx_MasterConfigSynchronization>:
 8001490:	f890 203c 	ldrb.w	r2, [r0, #60]	; 0x3c
 8001494:	2a01      	cmp	r2, #1
 8001496:	d01a      	beq.n	80014ce <HAL_TIMEx_MasterConfigSynchronization+0x3e>
 8001498:	2202      	movs	r2, #2
 800149a:	b4f0      	push	{r4, r5, r6, r7}
 800149c:	4603      	mov	r3, r0
 800149e:	2500      	movs	r5, #0
 80014a0:	2601      	movs	r6, #1
 80014a2:	6804      	ldr	r4, [r0, #0]
 80014a4:	f880 203d 	strb.w	r2, [r0, #61]	; 0x3d
 80014a8:	6860      	ldr	r0, [r4, #4]
 80014aa:	e9d1 2700 	ldrd	r2, r7, [r1]
 80014ae:	f020 0170 	bic.w	r1, r0, #112	; 0x70
 80014b2:	4311      	orrs	r1, r2
 80014b4:	68a2      	ldr	r2, [r4, #8]
 80014b6:	4628      	mov	r0, r5
 80014b8:	f022 0280 	bic.w	r2, r2, #128	; 0x80
 80014bc:	433a      	orrs	r2, r7
 80014be:	6061      	str	r1, [r4, #4]
 80014c0:	60a2      	str	r2, [r4, #8]
 80014c2:	f883 603d 	strb.w	r6, [r3, #61]	; 0x3d
 80014c6:	f883 503c 	strb.w	r5, [r3, #60]	; 0x3c
 80014ca:	bcf0      	pop	{r4, r5, r6, r7}
 80014cc:	4770      	bx	lr
 80014ce:	2002      	movs	r0, #2
 80014d0:	4770      	bx	lr
 80014d2:	bf00      	nop

080014d4 <HAL_TIMEx_CommutCallback>:
 80014d4:	4770      	bx	lr
 80014d6:	bf00      	nop

080014d8 <HAL_TIMEx_BreakCallback>:
 80014d8:	4770      	bx	lr
 80014da:	bf00      	nop

080014dc <HAL_UART_Init>:
 80014dc:	2800      	cmp	r0, #0
 80014de:	d05e      	beq.n	800159e <HAL_UART_Init+0xc2>
 80014e0:	b538      	push	{r3, r4, r5, lr}
 80014e2:	f890 3039 	ldrb.w	r3, [r0, #57]	; 0x39
 80014e6:	4604      	mov	r4, r0
 80014e8:	f003 02ff 	and.w	r2, r3, #255	; 0xff
 80014ec:	2b00      	cmp	r3, #0
 80014ee:	d051      	beq.n	8001594 <HAL_UART_Init+0xb8>
 80014f0:	2224      	movs	r2, #36	; 0x24
 80014f2:	6823      	ldr	r3, [r4, #0]
 80014f4:	f884 2039 	strb.w	r2, [r4, #57]	; 0x39
 80014f8:	68da      	ldr	r2, [r3, #12]
 80014fa:	68e0      	ldr	r0, [r4, #12]
 80014fc:	f422 5200 	bic.w	r2, r2, #8192	; 0x2000
 8001500:	60da      	str	r2, [r3, #12]
 8001502:	6919      	ldr	r1, [r3, #16]
 8001504:	68a2      	ldr	r2, [r4, #8]
 8001506:	f421 5140 	bic.w	r1, r1, #12288	; 0x3000
 800150a:	4301      	orrs	r1, r0
 800150c:	6119      	str	r1, [r3, #16]
 800150e:	68d9      	ldr	r1, [r3, #12]
 8001510:	e9d4 5004 	ldrd	r5, r0, [r4, #16]
 8001514:	f421 51b0 	bic.w	r1, r1, #5632	; 0x1600
 8001518:	432a      	orrs	r2, r5
 800151a:	f021 010c 	bic.w	r1, r1, #12
 800151e:	4302      	orrs	r2, r0
 8001520:	430a      	orrs	r2, r1
 8001522:	60da      	str	r2, [r3, #12]
 8001524:	695a      	ldr	r2, [r3, #20]
 8001526:	69a0      	ldr	r0, [r4, #24]
 8001528:	491f      	ldr	r1, [pc, #124]	; (80015a8 <HAL_UART_Init+0xcc>)
 800152a:	f422 7240 	bic.w	r2, r2, #768	; 0x300
 800152e:	4302      	orrs	r2, r0
 8001530:	428b      	cmp	r3, r1
 8001532:	615a      	str	r2, [r3, #20]
 8001534:	d035      	beq.n	80015a2 <HAL_UART_Init+0xc6>
 8001536:	f7ff fb45 	bl	8000bc4 <HAL_RCC_GetPCLK1Freq>
 800153a:	6862      	ldr	r2, [r4, #4]
 800153c:	eb00 0080 	add.w	r0, r0, r0, lsl #2
 8001540:	0092      	lsls	r2, r2, #2
 8001542:	eb00 0080 	add.w	r0, r0, r0, lsl #2
 8001546:	fbb0 f0f2 	udiv	r0, r0, r2
 800154a:	2264      	movs	r2, #100	; 0x64
 800154c:	4d17      	ldr	r5, [pc, #92]	; (80015ac <HAL_UART_Init+0xd0>)
 800154e:	6823      	ldr	r3, [r4, #0]
 8001550:	fba5 c100 	umull	ip, r1, r5, r0
 8001554:	0949      	lsrs	r1, r1, #5
 8001556:	fb02 0211 	mls	r2, r2, r1, r0
 800155a:	0112      	lsls	r2, r2, #4
 800155c:	3232      	adds	r2, #50	; 0x32
 800155e:	fba5 0202 	umull	r0, r2, r5, r2
 8001562:	0109      	lsls	r1, r1, #4
 8001564:	eb01 1252 	add.w	r2, r1, r2, lsr #5
 8001568:	2500      	movs	r5, #0
 800156a:	2120      	movs	r1, #32
 800156c:	609a      	str	r2, [r3, #8]
 800156e:	691a      	ldr	r2, [r3, #16]
 8001570:	4628      	mov	r0, r5
 8001572:	f422 4290 	bic.w	r2, r2, #18432	; 0x4800
 8001576:	611a      	str	r2, [r3, #16]
 8001578:	695a      	ldr	r2, [r3, #20]
 800157a:	f022 022a 	bic.w	r2, r2, #42	; 0x2a
 800157e:	615a      	str	r2, [r3, #20]
 8001580:	68da      	ldr	r2, [r3, #12]
 8001582:	f442 5200 	orr.w	r2, r2, #8192	; 0x2000
 8001586:	60da      	str	r2, [r3, #12]
 8001588:	63e5      	str	r5, [r4, #60]	; 0x3c
 800158a:	f884 1039 	strb.w	r1, [r4, #57]	; 0x39
 800158e:	f884 103a 	strb.w	r1, [r4, #58]	; 0x3a
 8001592:	bd38      	pop	{r3, r4, r5, pc}
 8001594:	f880 2038 	strb.w	r2, [r0, #56]	; 0x38
 8001598:	f000 f9fa 	bl	8001990 <HAL_UART_MspInit>
 800159c:	e7a8      	b.n	80014f0 <HAL_UART_Init+0x14>
 800159e:	2001      	movs	r0, #1
 80015a0:	4770      	bx	lr
 80015a2:	f7ff fb1f 	bl	8000be4 <HAL_RCC_GetPCLK2Freq>
 80015a6:	e7c8      	b.n	800153a <HAL_UART_Init+0x5e>
 80015a8:	40013800 	.word	0x40013800
 80015ac:	51eb851f 	.word	0x51eb851f

080015b0 <HAL_TIM_PeriodElapsedCallback>:
 80015b0:	6802      	ldr	r2, [r0, #0]
 80015b2:	4b04      	ldr	r3, [pc, #16]	; (80015c4 <HAL_TIM_PeriodElapsedCallback+0x14>)
 80015b4:	429a      	cmp	r2, r3
 80015b6:	d000      	beq.n	80015ba <HAL_TIM_PeriodElapsedCallback+0xa>
 80015b8:	4770      	bx	lr
 80015ba:	2104      	movs	r1, #4
 80015bc:	4802      	ldr	r0, [pc, #8]	; (80015c8 <HAL_TIM_PeriodElapsedCallback+0x18>)
 80015be:	f7fe bf79 	b.w	80004b4 <HAL_GPIO_TogglePin>
 80015c2:	bf00      	nop
 80015c4:	40000400 	.word	0x40000400
 80015c8:	40010800 	.word	0x40010800

080015cc <SystemClock_Config>:
 80015cc:	b510      	push	{r4, lr}
 80015ce:	b094      	sub	sp, #80	; 0x50
 80015d0:	2224      	movs	r2, #36	; 0x24
 80015d2:	2100      	movs	r1, #0
 80015d4:	a80b      	add	r0, sp, #44	; 0x2c
 80015d6:	f000 faa1 	bl	8001b1c <memset>
 80015da:	2401      	movs	r4, #1
 80015dc:	2300      	movs	r3, #0
 80015de:	2106      	movs	r1, #6
 80015e0:	2210      	movs	r2, #16
 80015e2:	a80a      	add	r0, sp, #40	; 0x28
 80015e4:	9305      	str	r3, [sp, #20]
 80015e6:	9301      	str	r3, [sp, #4]
 80015e8:	e9cd 3306 	strd	r3, r3, [sp, #24]
 80015ec:	e9cd 3308 	strd	r3, r3, [sp, #32]
 80015f0:	e9cd 3302 	strd	r3, r3, [sp, #8]
 80015f4:	9304      	str	r3, [sp, #16]
 80015f6:	910a      	str	r1, [sp, #40]	; 0x28
 80015f8:	e9cd 440d 	strd	r4, r4, [sp, #52]	; 0x34
 80015fc:	920f      	str	r2, [sp, #60]	; 0x3c
 80015fe:	f7ff f81d 	bl	800063c <HAL_RCC_OscConfig>
 8001602:	bb08      	cbnz	r0, 8001648 <SystemClock_Config+0x7c>
 8001604:	2300      	movs	r3, #0
 8001606:	220f      	movs	r2, #15
 8001608:	a805      	add	r0, sp, #20
 800160a:	4619      	mov	r1, r3
 800160c:	e9cd 3306 	strd	r3, r3, [sp, #24]
 8001610:	e9cd 3308 	strd	r3, r3, [sp, #32]
 8001614:	9205      	str	r2, [sp, #20]
 8001616:	f7ff fa09 	bl	8000a2c <HAL_RCC_ClockConfig>
 800161a:	b978      	cbnz	r0, 800163c <SystemClock_Config+0x70>
 800161c:	2401      	movs	r4, #1
 800161e:	f44f 7380 	mov.w	r3, #256	; 0x100
 8001622:	a801      	add	r0, sp, #4
 8001624:	e9cd 4301 	strd	r4, r3, [sp, #4]
 8001628:	f7ff faec 	bl	8000c04 <HAL_RCCEx_PeriphCLKConfig>
 800162c:	b120      	cbz	r0, 8001638 <SystemClock_Config+0x6c>
 800162e:	4622      	mov	r2, r4
 8001630:	2108      	movs	r1, #8
 8001632:	4808      	ldr	r0, [pc, #32]	; (8001654 <SystemClock_Config+0x88>)
 8001634:	f7fe ff3a 	bl	80004ac <HAL_GPIO_WritePin>
 8001638:	b014      	add	sp, #80	; 0x50
 800163a:	bd10      	pop	{r4, pc}
 800163c:	2201      	movs	r2, #1
 800163e:	2108      	movs	r1, #8
 8001640:	4804      	ldr	r0, [pc, #16]	; (8001654 <SystemClock_Config+0x88>)
 8001642:	f7fe ff33 	bl	80004ac <HAL_GPIO_WritePin>
 8001646:	e7e9      	b.n	800161c <SystemClock_Config+0x50>
 8001648:	4622      	mov	r2, r4
 800164a:	2108      	movs	r1, #8
 800164c:	4801      	ldr	r0, [pc, #4]	; (8001654 <SystemClock_Config+0x88>)
 800164e:	f7fe ff2d 	bl	80004ac <HAL_GPIO_WritePin>
 8001652:	e7d7      	b.n	8001604 <SystemClock_Config+0x38>
 8001654:	40010800 	.word	0x40010800

08001658 <main>:
 8001658:	b570      	push	{r4, r5, r6, lr}
 800165a:	2400      	movs	r4, #0
 800165c:	b090      	sub	sp, #64	; 0x40
 800165e:	f7fe fd99 	bl	8000194 <HAL_Init>
 8001662:	f7ff ffb3 	bl	80015cc <SystemClock_Config>
 8001666:	e9cd 4409 	strd	r4, r4, [sp, #36]	; 0x24
 800166a:	e9cd 440b 	strd	r4, r4, [sp, #44]	; 0x2c
 800166e:	4b71      	ldr	r3, [pc, #452]	; (8001834 <main+0x1dc>)
 8001670:	4622      	mov	r2, r4
 8001672:	6999      	ldr	r1, [r3, #24]
 8001674:	2602      	movs	r6, #2
 8001676:	f041 0110 	orr.w	r1, r1, #16
 800167a:	6199      	str	r1, [r3, #24]
 800167c:	6998      	ldr	r0, [r3, #24]
 800167e:	213c      	movs	r1, #60	; 0x3c
 8001680:	f000 0010 	and.w	r0, r0, #16
 8001684:	9000      	str	r0, [sp, #0]
 8001686:	9800      	ldr	r0, [sp, #0]
 8001688:	699d      	ldr	r5, [r3, #24]
 800168a:	486b      	ldr	r0, [pc, #428]	; (8001838 <main+0x1e0>)
 800168c:	f045 0504 	orr.w	r5, r5, #4
 8001690:	619d      	str	r5, [r3, #24]
 8001692:	699d      	ldr	r5, [r3, #24]
 8001694:	f005 0504 	and.w	r5, r5, #4
 8001698:	9501      	str	r5, [sp, #4]
 800169a:	9d01      	ldr	r5, [sp, #4]
 800169c:	699d      	ldr	r5, [r3, #24]
 800169e:	f045 0508 	orr.w	r5, r5, #8
 80016a2:	619d      	str	r5, [r3, #24]
 80016a4:	699b      	ldr	r3, [r3, #24]
 80016a6:	2501      	movs	r5, #1
 80016a8:	f003 0308 	and.w	r3, r3, #8
 80016ac:	9302      	str	r3, [sp, #8]
 80016ae:	9b02      	ldr	r3, [sp, #8]
 80016b0:	f7fe fefc 	bl	80004ac <HAL_GPIO_WritePin>
 80016b4:	4622      	mov	r2, r4
 80016b6:	f44f 5183 	mov.w	r1, #4192	; 0x1060
 80016ba:	4860      	ldr	r0, [pc, #384]	; (800183c <main+0x1e4>)
 80016bc:	f7fe fef6 	bl	80004ac <HAL_GPIO_WritePin>
 80016c0:	2342      	movs	r3, #66	; 0x42
 80016c2:	a909      	add	r1, sp, #36	; 0x24
 80016c4:	485c      	ldr	r0, [pc, #368]	; (8001838 <main+0x1e0>)
 80016c6:	9309      	str	r3, [sp, #36]	; 0x24
 80016c8:	e9cd 440a 	strd	r4, r4, [sp, #40]	; 0x28
 80016cc:	f7fe fdf4 	bl	80002b8 <HAL_GPIO_Init>
 80016d0:	233c      	movs	r3, #60	; 0x3c
 80016d2:	a909      	add	r1, sp, #36	; 0x24
 80016d4:	4858      	ldr	r0, [pc, #352]	; (8001838 <main+0x1e0>)
 80016d6:	e9cd 3509 	strd	r3, r5, [sp, #36]	; 0x24
 80016da:	960c      	str	r6, [sp, #48]	; 0x30
 80016dc:	940b      	str	r4, [sp, #44]	; 0x2c
 80016de:	f7fe fdeb 	bl	80002b8 <HAL_GPIO_Init>
 80016e2:	f44f 5383 	mov.w	r3, #4192	; 0x1060
 80016e6:	a909      	add	r1, sp, #36	; 0x24
 80016e8:	4854      	ldr	r0, [pc, #336]	; (800183c <main+0x1e4>)
 80016ea:	960c      	str	r6, [sp, #48]	; 0x30
 80016ec:	9309      	str	r3, [sp, #36]	; 0x24
 80016ee:	e9cd 540a 	strd	r5, r4, [sp, #40]	; 0x28
 80016f2:	f7fe fde1 	bl	80002b8 <HAL_GPIO_Init>
 80016f6:	f44f 4280 	mov.w	r2, #16384	; 0x4000
 80016fa:	4b51      	ldr	r3, [pc, #324]	; (8001840 <main+0x1e8>)
 80016fc:	4e51      	ldr	r6, [pc, #324]	; (8001844 <main+0x1ec>)
 80016fe:	4952      	ldr	r1, [pc, #328]	; (8001848 <main+0x1f0>)
 8001700:	4618      	mov	r0, r3
 8001702:	e9c3 4402 	strd	r4, r4, [r3, #8]
 8001706:	e9c3 4405 	strd	r4, r4, [r3, #20]
 800170a:	e9c3 4407 	strd	r4, r4, [r3, #28]
 800170e:	e9c3 6100 	strd	r6, r1, [r3]
 8001712:	611a      	str	r2, [r3, #16]
 8001714:	f7fe fed4 	bl	80004c0 <HAL_I2C_Init>
 8001718:	b120      	cbz	r0, 8001724 <main+0xcc>
 800171a:	462a      	mov	r2, r5
 800171c:	2108      	movs	r1, #8
 800171e:	4846      	ldr	r0, [pc, #280]	; (8001838 <main+0x1e0>)
 8001720:	f7fe fec4 	bl	80004ac <HAL_GPIO_WritePin>
 8001724:	f04f 34ff 	mov.w	r4, #4294967295	; 0xffffffff
 8001728:	f44f 7280 	mov.w	r2, #256	; 0x100
 800172c:	4b47      	ldr	r3, [pc, #284]	; (800184c <main+0x1f4>)
 800172e:	4948      	ldr	r1, [pc, #288]	; (8001850 <main+0x1f8>)
 8001730:	4618      	mov	r0, r3
 8001732:	e9c3 1400 	strd	r1, r4, [r3]
 8001736:	609a      	str	r2, [r3, #8]
 8001738:	f7ff fb5e 	bl	8000df8 <HAL_RTC_Init>
 800173c:	b120      	cbz	r0, 8001748 <main+0xf0>
 800173e:	2201      	movs	r2, #1
 8001740:	2108      	movs	r1, #8
 8001742:	483d      	ldr	r0, [pc, #244]	; (8001838 <main+0x1e0>)
 8001744:	f7fe feb2 	bl	80004ac <HAL_GPIO_WritePin>
 8001748:	f44f 30e1 	mov.w	r0, #115200	; 0x1c200
 800174c:	2200      	movs	r2, #0
 800174e:	210c      	movs	r1, #12
 8001750:	4b40      	ldr	r3, [pc, #256]	; (8001854 <main+0x1fc>)
 8001752:	4c41      	ldr	r4, [pc, #260]	; (8001858 <main+0x200>)
 8001754:	6058      	str	r0, [r3, #4]
 8001756:	4618      	mov	r0, r3
 8001758:	601c      	str	r4, [r3, #0]
 800175a:	6159      	str	r1, [r3, #20]
 800175c:	e9c3 2202 	strd	r2, r2, [r3, #8]
 8001760:	611a      	str	r2, [r3, #16]
 8001762:	e9c3 2206 	strd	r2, r2, [r3, #24]
 8001766:	f7ff feb9 	bl	80014dc <HAL_UART_Init>
 800176a:	b120      	cbz	r0, 8001776 <main+0x11e>
 800176c:	2201      	movs	r2, #1
 800176e:	2108      	movs	r1, #8
 8001770:	4831      	ldr	r0, [pc, #196]	; (8001838 <main+0x1e0>)
 8001772:	f7fe fe9b 	bl	80004ac <HAL_GPIO_WritePin>
 8001776:	2300      	movs	r3, #0
 8001778:	f44f 717a 	mov.w	r1, #1000	; 0x3e8
 800177c:	2408      	movs	r4, #8
 800177e:	4a37      	ldr	r2, [pc, #220]	; (800185c <main+0x204>)
 8001780:	9305      	str	r3, [sp, #20]
 8001782:	9303      	str	r3, [sp, #12]
 8001784:	e9cd 3309 	strd	r3, r3, [sp, #36]	; 0x24
 8001788:	e9cd 330b 	strd	r3, r3, [sp, #44]	; 0x2c
 800178c:	e9cd 330d 	strd	r3, r3, [sp, #52]	; 0x34
 8001790:	930f      	str	r3, [sp, #60]	; 0x3c
 8001792:	e9cd 3306 	strd	r3, r3, [sp, #24]
 8001796:	9308      	str	r3, [sp, #32]
 8001798:	9304      	str	r3, [sp, #16]
 800179a:	6093      	str	r3, [r2, #8]
 800179c:	6113      	str	r3, [r2, #16]
 800179e:	6193      	str	r3, [r2, #24]
 80017a0:	4b2f      	ldr	r3, [pc, #188]	; (8001860 <main+0x208>)
 80017a2:	4610      	mov	r0, r2
 80017a4:	60d1      	str	r1, [r2, #12]
 80017a6:	e9c2 3400 	strd	r3, r4, [r2]
 80017aa:	f7ff fba3 	bl	8000ef4 <HAL_TIM_Base_Init>
 80017ae:	b120      	cbz	r0, 80017ba <main+0x162>
 80017b0:	4621      	mov	r1, r4
 80017b2:	2201      	movs	r2, #1
 80017b4:	4820      	ldr	r0, [pc, #128]	; (8001838 <main+0x1e0>)
 80017b6:	f7fe fe79 	bl	80004ac <HAL_GPIO_WritePin>
 80017ba:	f44f 5380 	mov.w	r3, #4096	; 0x1000
 80017be:	a905      	add	r1, sp, #20
 80017c0:	4826      	ldr	r0, [pc, #152]	; (800185c <main+0x204>)
 80017c2:	9305      	str	r3, [sp, #20]
 80017c4:	f7ff fd0c 	bl	80011e0 <HAL_TIM_ConfigClockSource>
 80017c8:	b120      	cbz	r0, 80017d4 <main+0x17c>
 80017ca:	2201      	movs	r2, #1
 80017cc:	2108      	movs	r1, #8
 80017ce:	481a      	ldr	r0, [pc, #104]	; (8001838 <main+0x1e0>)
 80017d0:	f7fe fe6c 	bl	80004ac <HAL_GPIO_WritePin>
 80017d4:	4821      	ldr	r0, [pc, #132]	; (800185c <main+0x204>)
 80017d6:	f7ff fbed 	bl	8000fb4 <HAL_TIM_OC_Init>
 80017da:	b120      	cbz	r0, 80017e6 <main+0x18e>
 80017dc:	2201      	movs	r2, #1
 80017de:	2108      	movs	r1, #8
 80017e0:	4815      	ldr	r0, [pc, #84]	; (8001838 <main+0x1e0>)
 80017e2:	f7fe fe63 	bl	80004ac <HAL_GPIO_WritePin>
 80017e6:	2300      	movs	r3, #0
 80017e8:	a903      	add	r1, sp, #12
 80017ea:	481c      	ldr	r0, [pc, #112]	; (800185c <main+0x204>)
 80017ec:	e9cd 3303 	strd	r3, r3, [sp, #12]
 80017f0:	f7ff fe4e 	bl	8001490 <HAL_TIMEx_MasterConfigSynchronization>
 80017f4:	b120      	cbz	r0, 8001800 <main+0x1a8>
 80017f6:	2201      	movs	r2, #1
 80017f8:	2108      	movs	r1, #8
 80017fa:	480f      	ldr	r0, [pc, #60]	; (8001838 <main+0x1e0>)
 80017fc:	f7fe fe56 	bl	80004ac <HAL_GPIO_WritePin>
 8001800:	2300      	movs	r3, #0
 8001802:	a909      	add	r1, sp, #36	; 0x24
 8001804:	461a      	mov	r2, r3
 8001806:	4815      	ldr	r0, [pc, #84]	; (800185c <main+0x204>)
 8001808:	e9cd 3309 	strd	r3, r3, [sp, #36]	; 0x24
 800180c:	930b      	str	r3, [sp, #44]	; 0x2c
 800180e:	930d      	str	r3, [sp, #52]	; 0x34
 8001810:	f7ff fc1e 	bl	8001050 <HAL_TIM_OC_ConfigChannel>
 8001814:	b120      	cbz	r0, 8001820 <main+0x1c8>
 8001816:	2201      	movs	r2, #1
 8001818:	2108      	movs	r1, #8
 800181a:	4807      	ldr	r0, [pc, #28]	; (8001838 <main+0x1e0>)
 800181c:	f7fe fe46 	bl	80004ac <HAL_GPIO_WritePin>
 8001820:	480e      	ldr	r0, [pc, #56]	; (800185c <main+0x204>)
 8001822:	f7ff fbb5 	bl	8000f90 <HAL_TIM_Base_Start_IT>
 8001826:	f44f 737a 	mov.w	r3, #1000	; 0x3e8
 800182a:	bf00      	nop
 800182c:	3b01      	subs	r3, #1
 800182e:	d1fc      	bne.n	800182a <main+0x1d2>
 8001830:	e7f9      	b.n	8001826 <main+0x1ce>
 8001832:	bf00      	nop
 8001834:	40021000 	.word	0x40021000
 8001838:	40010800 	.word	0x40010800
 800183c:	40010c00 	.word	0x40010c00
 8001840:	2000002c 	.word	0x2000002c
 8001844:	40005800 	.word	0x40005800
 8001848:	000186a0 	.word	0x000186a0
 800184c:	20000100 	.word	0x20000100
 8001850:	40002800 	.word	0x40002800
 8001854:	200000c0 	.word	0x200000c0
 8001858:	40013800 	.word	0x40013800
 800185c:	20000080 	.word	0x20000080
 8001860:	40000400 	.word	0x40000400

08001864 <HAL_MspInit>:
 8001864:	4b0e      	ldr	r3, [pc, #56]	; (80018a0 <HAL_MspInit+0x3c>)
 8001866:	b082      	sub	sp, #8
 8001868:	699a      	ldr	r2, [r3, #24]
 800186a:	490e      	ldr	r1, [pc, #56]	; (80018a4 <HAL_MspInit+0x40>)
 800186c:	f042 0201 	orr.w	r2, r2, #1
 8001870:	619a      	str	r2, [r3, #24]
 8001872:	699a      	ldr	r2, [r3, #24]
 8001874:	f002 0201 	and.w	r2, r2, #1
 8001878:	9200      	str	r2, [sp, #0]
 800187a:	9a00      	ldr	r2, [sp, #0]
 800187c:	69da      	ldr	r2, [r3, #28]
 800187e:	f042 5280 	orr.w	r2, r2, #268435456	; 0x10000000
 8001882:	61da      	str	r2, [r3, #28]
 8001884:	69db      	ldr	r3, [r3, #28]
 8001886:	f003 5380 	and.w	r3, r3, #268435456	; 0x10000000
 800188a:	9301      	str	r3, [sp, #4]
 800188c:	9b01      	ldr	r3, [sp, #4]
 800188e:	684b      	ldr	r3, [r1, #4]
 8001890:	f023 63e0 	bic.w	r3, r3, #117440512	; 0x7000000
 8001894:	f043 7300 	orr.w	r3, r3, #33554432	; 0x2000000
 8001898:	604b      	str	r3, [r1, #4]
 800189a:	b002      	add	sp, #8
 800189c:	4770      	bx	lr
 800189e:	bf00      	nop
 80018a0:	40021000 	.word	0x40021000
 80018a4:	40010000 	.word	0x40010000

080018a8 <HAL_I2C_MspInit>:
 80018a8:	2300      	movs	r3, #0
 80018aa:	b530      	push	{r4, r5, lr}
 80018ac:	6801      	ldr	r1, [r0, #0]
 80018ae:	4a15      	ldr	r2, [pc, #84]	; (8001904 <HAL_I2C_MspInit+0x5c>)
 80018b0:	b087      	sub	sp, #28
 80018b2:	4291      	cmp	r1, r2
 80018b4:	e9cd 3302 	strd	r3, r3, [sp, #8]
 80018b8:	e9cd 3304 	strd	r3, r3, [sp, #16]
 80018bc:	d001      	beq.n	80018c2 <HAL_I2C_MspInit+0x1a>
 80018be:	b007      	add	sp, #28
 80018c0:	bd30      	pop	{r4, r5, pc}
 80018c2:	f44f 6040 	mov.w	r0, #3072	; 0xc00
 80018c6:	2203      	movs	r2, #3
 80018c8:	2512      	movs	r5, #18
 80018ca:	4c0f      	ldr	r4, [pc, #60]	; (8001908 <HAL_I2C_MspInit+0x60>)
 80018cc:	a902      	add	r1, sp, #8
 80018ce:	69a3      	ldr	r3, [r4, #24]
 80018d0:	f043 0308 	orr.w	r3, r3, #8
 80018d4:	61a3      	str	r3, [r4, #24]
 80018d6:	69a3      	ldr	r3, [r4, #24]
 80018d8:	9002      	str	r0, [sp, #8]
 80018da:	f003 0308 	and.w	r3, r3, #8
 80018de:	9300      	str	r3, [sp, #0]
 80018e0:	480a      	ldr	r0, [pc, #40]	; (800190c <HAL_I2C_MspInit+0x64>)
 80018e2:	9b00      	ldr	r3, [sp, #0]
 80018e4:	9503      	str	r5, [sp, #12]
 80018e6:	9205      	str	r2, [sp, #20]
 80018e8:	f7fe fce6 	bl	80002b8 <HAL_GPIO_Init>
 80018ec:	69e3      	ldr	r3, [r4, #28]
 80018ee:	f443 0380 	orr.w	r3, r3, #4194304	; 0x400000
 80018f2:	61e3      	str	r3, [r4, #28]
 80018f4:	69e3      	ldr	r3, [r4, #28]
 80018f6:	f403 0380 	and.w	r3, r3, #4194304	; 0x400000
 80018fa:	9301      	str	r3, [sp, #4]
 80018fc:	9b01      	ldr	r3, [sp, #4]
 80018fe:	b007      	add	sp, #28
 8001900:	bd30      	pop	{r4, r5, pc}
 8001902:	bf00      	nop
 8001904:	40005800 	.word	0x40005800
 8001908:	40021000 	.word	0x40021000
 800190c:	40010c00 	.word	0x40010c00

08001910 <HAL_RTC_MspInit>:
 8001910:	6802      	ldr	r2, [r0, #0]
 8001912:	4b0c      	ldr	r3, [pc, #48]	; (8001944 <HAL_RTC_MspInit+0x34>)
 8001914:	429a      	cmp	r2, r3
 8001916:	d000      	beq.n	800191a <HAL_RTC_MspInit+0xa>
 8001918:	4770      	bx	lr
 800191a:	b500      	push	{lr}
 800191c:	b083      	sub	sp, #12
 800191e:	f7fe fe87 	bl	8000630 <HAL_PWR_EnableBkUpAccess>
 8001922:	2001      	movs	r0, #1
 8001924:	4b08      	ldr	r3, [pc, #32]	; (8001948 <HAL_RTC_MspInit+0x38>)
 8001926:	4909      	ldr	r1, [pc, #36]	; (800194c <HAL_RTC_MspInit+0x3c>)
 8001928:	69da      	ldr	r2, [r3, #28]
 800192a:	f042 6200 	orr.w	r2, r2, #134217728	; 0x8000000
 800192e:	61da      	str	r2, [r3, #28]
 8001930:	69db      	ldr	r3, [r3, #28]
 8001932:	f003 6300 	and.w	r3, r3, #134217728	; 0x8000000
 8001936:	9301      	str	r3, [sp, #4]
 8001938:	9b01      	ldr	r3, [sp, #4]
 800193a:	6008      	str	r0, [r1, #0]
 800193c:	b003      	add	sp, #12
 800193e:	f85d fb04 	ldr.w	pc, [sp], #4
 8001942:	bf00      	nop
 8001944:	40002800 	.word	0x40002800
 8001948:	40021000 	.word	0x40021000
 800194c:	4242043c 	.word	0x4242043c

08001950 <HAL_TIM_Base_MspInit>:
 8001950:	6802      	ldr	r2, [r0, #0]
 8001952:	4b0e      	ldr	r3, [pc, #56]	; (800198c <HAL_TIM_Base_MspInit+0x3c>)
 8001954:	429a      	cmp	r2, r3
 8001956:	d000      	beq.n	800195a <HAL_TIM_Base_MspInit+0xa>
 8001958:	4770      	bx	lr
 800195a:	2200      	movs	r2, #0
 800195c:	f503 3303 	add.w	r3, r3, #134144	; 0x20c00
 8001960:	b510      	push	{r4, lr}
 8001962:	69dc      	ldr	r4, [r3, #28]
 8001964:	b082      	sub	sp, #8
 8001966:	f044 0402 	orr.w	r4, r4, #2
 800196a:	61dc      	str	r4, [r3, #28]
 800196c:	69db      	ldr	r3, [r3, #28]
 800196e:	4611      	mov	r1, r2
 8001970:	f003 0302 	and.w	r3, r3, #2
 8001974:	9301      	str	r3, [sp, #4]
 8001976:	201d      	movs	r0, #29
 8001978:	9b01      	ldr	r3, [sp, #4]
 800197a:	f7fe fc41 	bl	8000200 <HAL_NVIC_SetPriority>
 800197e:	201d      	movs	r0, #29
 8001980:	b002      	add	sp, #8
 8001982:	e8bd 4010 	ldmia.w	sp!, {r4, lr}
 8001986:	f7fe bc71 	b.w	800026c <HAL_NVIC_EnableIRQ>
 800198a:	bf00      	nop
 800198c:	40000400 	.word	0x40000400

08001990 <HAL_UART_MspInit>:
 8001990:	b570      	push	{r4, r5, r6, lr}
 8001992:	2400      	movs	r4, #0
 8001994:	6802      	ldr	r2, [r0, #0]
 8001996:	4b1a      	ldr	r3, [pc, #104]	; (8001a00 <HAL_UART_MspInit+0x70>)
 8001998:	b086      	sub	sp, #24
 800199a:	429a      	cmp	r2, r3
 800199c:	e9cd 4402 	strd	r4, r4, [sp, #8]
 80019a0:	e9cd 4404 	strd	r4, r4, [sp, #16]
 80019a4:	d001      	beq.n	80019aa <HAL_UART_MspInit+0x1a>
 80019a6:	b006      	add	sp, #24
 80019a8:	bd70      	pop	{r4, r5, r6, pc}
 80019aa:	f44f 7100 	mov.w	r1, #512	; 0x200
 80019ae:	2602      	movs	r6, #2
 80019b0:	2503      	movs	r5, #3
 80019b2:	f503 4358 	add.w	r3, r3, #55296	; 0xd800
 80019b6:	699a      	ldr	r2, [r3, #24]
 80019b8:	4812      	ldr	r0, [pc, #72]	; (8001a04 <HAL_UART_MspInit+0x74>)
 80019ba:	f442 4280 	orr.w	r2, r2, #16384	; 0x4000
 80019be:	619a      	str	r2, [r3, #24]
 80019c0:	699a      	ldr	r2, [r3, #24]
 80019c2:	f402 4280 	and.w	r2, r2, #16384	; 0x4000
 80019c6:	9200      	str	r2, [sp, #0]
 80019c8:	9a00      	ldr	r2, [sp, #0]
 80019ca:	699a      	ldr	r2, [r3, #24]
 80019cc:	f042 0204 	orr.w	r2, r2, #4
 80019d0:	619a      	str	r2, [r3, #24]
 80019d2:	699b      	ldr	r3, [r3, #24]
 80019d4:	9102      	str	r1, [sp, #8]
 80019d6:	f003 0304 	and.w	r3, r3, #4
 80019da:	9301      	str	r3, [sp, #4]
 80019dc:	a902      	add	r1, sp, #8
 80019de:	9b01      	ldr	r3, [sp, #4]
 80019e0:	9603      	str	r6, [sp, #12]
 80019e2:	9505      	str	r5, [sp, #20]
 80019e4:	f7fe fc68 	bl	80002b8 <HAL_GPIO_Init>
 80019e8:	f44f 6380 	mov.w	r3, #1024	; 0x400
 80019ec:	a902      	add	r1, sp, #8
 80019ee:	4805      	ldr	r0, [pc, #20]	; (8001a04 <HAL_UART_MspInit+0x74>)
 80019f0:	e9cd 4403 	strd	r4, r4, [sp, #12]
 80019f4:	9302      	str	r3, [sp, #8]
 80019f6:	f7fe fc5f 	bl	80002b8 <HAL_GPIO_Init>
 80019fa:	b006      	add	sp, #24
 80019fc:	bd70      	pop	{r4, r5, r6, pc}
 80019fe:	bf00      	nop
 8001a00:	40013800 	.word	0x40013800
 8001a04:	40010800 	.word	0x40010800

08001a08 <NMI_Handler>:
 8001a08:	4770      	bx	lr
 8001a0a:	bf00      	nop

08001a0c <HardFault_Handler>:
 8001a0c:	e7fe      	b.n	8001a0c <HardFault_Handler>
 8001a0e:	bf00      	nop

08001a10 <MemManage_Handler>:
 8001a10:	e7fe      	b.n	8001a10 <MemManage_Handler>
 8001a12:	bf00      	nop

08001a14 <BusFault_Handler>:
 8001a14:	e7fe      	b.n	8001a14 <BusFault_Handler>
 8001a16:	bf00      	nop

08001a18 <UsageFault_Handler>:
 8001a18:	e7fe      	b.n	8001a18 <UsageFault_Handler>
 8001a1a:	bf00      	nop

08001a1c <SVC_Handler>:
 8001a1c:	4770      	bx	lr
 8001a1e:	bf00      	nop

08001a20 <DebugMon_Handler>:
 8001a20:	4770      	bx	lr
 8001a22:	bf00      	nop

08001a24 <PendSV_Handler>:
 8001a24:	4770      	bx	lr
 8001a26:	bf00      	nop

08001a28 <SysTick_Handler>:
 8001a28:	f7fe bbc6 	b.w	80001b8 <HAL_IncTick>

08001a2c <TIM3_IRQHandler>:
 8001a2c:	4801      	ldr	r0, [pc, #4]	; (8001a34 <TIM3_IRQHandler+0x8>)
 8001a2e:	f7ff bc85 	b.w	800133c <HAL_TIM_IRQHandler>
 8001a32:	bf00      	nop
 8001a34:	20000080 	.word	0x20000080

08001a38 <SystemInit>:
 8001a38:	b430      	push	{r4, r5}
 8001a3a:	f44f 051f 	mov.w	r5, #10420224	; 0x9f0000
 8001a3e:	f04f 6400 	mov.w	r4, #134217728	; 0x8000000
 8001a42:	4b0e      	ldr	r3, [pc, #56]	; (8001a7c <SystemInit+0x44>)
 8001a44:	4a0e      	ldr	r2, [pc, #56]	; (8001a80 <SystemInit+0x48>)
 8001a46:	6819      	ldr	r1, [r3, #0]
 8001a48:	480e      	ldr	r0, [pc, #56]	; (8001a84 <SystemInit+0x4c>)
 8001a4a:	f041 0101 	orr.w	r1, r1, #1
 8001a4e:	6019      	str	r1, [r3, #0]
 8001a50:	6859      	ldr	r1, [r3, #4]
 8001a52:	400a      	ands	r2, r1
 8001a54:	605a      	str	r2, [r3, #4]
 8001a56:	681a      	ldr	r2, [r3, #0]
 8001a58:	f022 7284 	bic.w	r2, r2, #17301504	; 0x1080000
 8001a5c:	f422 3280 	bic.w	r2, r2, #65536	; 0x10000
 8001a60:	601a      	str	r2, [r3, #0]
 8001a62:	681a      	ldr	r2, [r3, #0]
 8001a64:	f422 2280 	bic.w	r2, r2, #262144	; 0x40000
 8001a68:	601a      	str	r2, [r3, #0]
 8001a6a:	685a      	ldr	r2, [r3, #4]
 8001a6c:	f422 02fe 	bic.w	r2, r2, #8323072	; 0x7f0000
 8001a70:	605a      	str	r2, [r3, #4]
 8001a72:	609d      	str	r5, [r3, #8]
 8001a74:	6084      	str	r4, [r0, #8]
 8001a76:	bc30      	pop	{r4, r5}
 8001a78:	4770      	bx	lr
 8001a7a:	bf00      	nop
 8001a7c:	40021000 	.word	0x40021000
 8001a80:	f8ff0000 	.word	0xf8ff0000
 8001a84:	e000ed00 	.word	0xe000ed00

08001a88 <Reset_Handler>:
 8001a88:	2100      	movs	r1, #0
 8001a8a:	e003      	b.n	8001a94 <LoopCopyDataInit>

08001a8c <CopyDataInit>:
 8001a8c:	4b0b      	ldr	r3, [pc, #44]	; (8001abc <LoopFillZerobss+0x14>)
 8001a8e:	585b      	ldr	r3, [r3, r1]
 8001a90:	5043      	str	r3, [r0, r1]
 8001a92:	3104      	adds	r1, #4

08001a94 <LoopCopyDataInit>:
 8001a94:	480a      	ldr	r0, [pc, #40]	; (8001ac0 <LoopFillZerobss+0x18>)
 8001a96:	4b0b      	ldr	r3, [pc, #44]	; (8001ac4 <LoopFillZerobss+0x1c>)
 8001a98:	1842      	adds	r2, r0, r1
 8001a9a:	429a      	cmp	r2, r3
 8001a9c:	d3f6      	bcc.n	8001a8c <CopyDataInit>
 8001a9e:	4a0a      	ldr	r2, [pc, #40]	; (8001ac8 <LoopFillZerobss+0x20>)
 8001aa0:	e002      	b.n	8001aa8 <LoopFillZerobss>

08001aa2 <FillZerobss>:
 8001aa2:	2300      	movs	r3, #0
 8001aa4:	f842 3b04 	str.w	r3, [r2], #4

08001aa8 <LoopFillZerobss>:
 8001aa8:	4b08      	ldr	r3, [pc, #32]	; (8001acc <LoopFillZerobss+0x24>)
 8001aaa:	429a      	cmp	r2, r3
 8001aac:	d3f9      	bcc.n	8001aa2 <FillZerobss>
 8001aae:	f7ff ffc3 	bl	8001a38 <SystemInit>
 8001ab2:	f000 f80f 	bl	8001ad4 <__libc_init_array>
 8001ab6:	f7ff fdcf 	bl	8001658 <main>
 8001aba:	4770      	bx	lr
 8001abc:	08001b84 	.word	0x08001b84
 8001ac0:	20000000 	.word	0x20000000
 8001ac4:	2000000c 	.word	0x2000000c
 8001ac8:	2000000c 	.word	0x2000000c
 8001acc:	20000114 	.word	0x20000114

08001ad0 <ADC1_2_IRQHandler>:
 8001ad0:	e7fe      	b.n	8001ad0 <ADC1_2_IRQHandler>
	...

08001ad4 <__libc_init_array>:
 8001ad4:	b570      	push	{r4, r5, r6, lr}
 8001ad6:	2500      	movs	r5, #0
 8001ad8:	4e0c      	ldr	r6, [pc, #48]	; (8001b0c <__libc_init_array+0x38>)
 8001ada:	4c0d      	ldr	r4, [pc, #52]	; (8001b10 <__libc_init_array+0x3c>)
 8001adc:	1ba4      	subs	r4, r4, r6
 8001ade:	10a4      	asrs	r4, r4, #2
 8001ae0:	42a5      	cmp	r5, r4
 8001ae2:	d109      	bne.n	8001af8 <__libc_init_array+0x24>
 8001ae4:	f000 f822 	bl	8001b2c <_init>
 8001ae8:	2500      	movs	r5, #0
 8001aea:	4e0a      	ldr	r6, [pc, #40]	; (8001b14 <__libc_init_array+0x40>)
 8001aec:	4c0a      	ldr	r4, [pc, #40]	; (8001b18 <__libc_init_array+0x44>)
 8001aee:	1ba4      	subs	r4, r4, r6
 8001af0:	10a4      	asrs	r4, r4, #2
 8001af2:	42a5      	cmp	r5, r4
 8001af4:	d105      	bne.n	8001b02 <__libc_init_array+0x2e>
 8001af6:	bd70      	pop	{r4, r5, r6, pc}
 8001af8:	f856 3025 	ldr.w	r3, [r6, r5, lsl #2]
 8001afc:	4798      	blx	r3
 8001afe:	3501      	adds	r5, #1
 8001b00:	e7ee      	b.n	8001ae0 <__libc_init_array+0xc>
 8001b02:	f856 3025 	ldr.w	r3, [r6, r5, lsl #2]
 8001b06:	4798      	blx	r3
 8001b08:	3501      	adds	r5, #1
 8001b0a:	e7f2      	b.n	8001af2 <__libc_init_array+0x1e>
 8001b0c:	08001b7c 	.word	0x08001b7c
 8001b10:	08001b7c 	.word	0x08001b7c
 8001b14:	08001b7c 	.word	0x08001b7c
 8001b18:	08001b80 	.word	0x08001b80

08001b1c <memset>:
 8001b1c:	4603      	mov	r3, r0
 8001b1e:	4402      	add	r2, r0
 8001b20:	4293      	cmp	r3, r2
 8001b22:	d100      	bne.n	8001b26 <memset+0xa>
 8001b24:	4770      	bx	lr
 8001b26:	f803 1b01 	strb.w	r1, [r3], #1
 8001b2a:	e7f9      	b.n	8001b20 <memset+0x4>

08001b2c <_init>:
 8001b2c:	b5f8      	push	{r3, r4, r5, r6, r7, lr}
 8001b2e:	bf00      	nop
 8001b30:	bcf8      	pop	{r3, r4, r5, r6, r7}
 8001b32:	bc08      	pop	{r3}
 8001b34:	469e      	mov	lr, r3
 8001b36:	4770      	bx	lr

08001b38 <_fini>:
 8001b38:	b5f8      	push	{r3, r4, r5, r6, r7, lr}
 8001b3a:	bf00      	nop
 8001b3c:	bcf8      	pop	{r3, r4, r5, r6, r7}
 8001b3e:	bc08      	pop	{r3}
 8001b40:	469e      	mov	lr, r3
 8001b42:	4770      	bx	lr
